

Microchip MPLAB XC8 Assembler V2.32 build 20210201212658 
                                                                                               Fri Jul 30 21:52:54 2021

Microchip MPLAB XC8 C Compiler v2.32 (Free license) build 20210201212658 Og1 
     1                           	processor	18F4520
     2                           	fnconf	rparam,??,?,0
     3                           	pagewidth 120
     4                           	opt	flic
     5                           	psect	idataCOMRAM,global,class=CODE,delta=1,noexec
     6                           	psect	idataBANK0,global,class=CODE,delta=1,noexec
     7                           	psect	smallconst,global,reloc=2,class=SMALLCONST,delta=1,noexec
     8                           	psect	cinit,global,reloc=2,class=CODE,delta=1
     9                           	psect	bssCOMRAM,global,class=COMRAM,space=1,delta=1,lowdata,noexec
    10                           	psect	dataCOMRAM,global,class=COMRAM,space=1,delta=1,lowdata,noexec
    11                           	psect	dataBANK0,global,class=BANK0,space=1,delta=1,lowdata,noexec
    12                           	psect	cstackCOMRAM,global,class=COMRAM,space=1,delta=1,lowdata,noexec
    13                           	psect	text0,global,reloc=2,class=CODE,delta=1
    14                           	psect	text1,global,reloc=2,class=CODE,delta=1
    15                           	psect	text2,global,reloc=2,class=CODE,delta=1
    16                           	psect	text3,global,reloc=2,class=CODE,delta=1
    17                           	psect	text4,global,reloc=2,class=CODE,delta=1
    18                           	psect	text5,global,reloc=2,class=CODE,delta=1
    19                           	psect	text6,global,reloc=2,class=CODE,delta=1
    20                           	psect	text7,global,reloc=2,class=CODE,delta=1
    21                           	psect	text8,global,reloc=2,class=CODE,delta=1
    22                           	psect	text9,global,reloc=2,class=CODE,delta=1
    23                           	psect	text10,global,reloc=2,class=CODE,delta=1
    24                           	psect	text11,global,reloc=2,class=CODE,delta=1
    25                           	psect	text12,global,reloc=2,class=CODE,delta=1
    26                           	psect	text13,global,reloc=2,class=CODE,delta=1
    27                           	psect	text14,global,reloc=2,class=CODE,delta=1
    28                           	psect	text15,global,reloc=2,class=CODE,delta=1
    29                           	psect	text16,global,reloc=2,class=CODE,delta=1
    30                           	psect	text17,global,reloc=2,class=CODE,delta=1
    31                           	psect	text18,global,reloc=2,class=CODE,delta=1
    32                           	psect	text19,global,reloc=2,class=CODE,delta=1
    33                           	psect	text20,global,reloc=2,class=CODE,delta=1
    34                           	psect	text21,global,reloc=2,class=CODE,delta=1
    35                           	psect	text22,global,reloc=2,class=CODE,delta=1
    36                           	psect	text23,global,reloc=2,class=CODE,delta=1,group=1
    37                           	psect	text24,global,reloc=2,class=CODE,delta=1,group=1
    38                           	psect	text25,global,reloc=2,class=CODE,delta=1,group=1
    39                           	psect	text26,global,reloc=2,class=CODE,delta=1,group=1
    40                           	psect	text27,global,reloc=2,class=CODE,delta=1,group=1
    41                           	psect	text28,global,reloc=2,class=CODE,delta=1,group=1
    42                           	psect	text29,global,reloc=2,class=CODE,delta=1,group=1
    43                           	psect	text30,global,reloc=2,class=CODE,delta=1,group=1
    44                           	psect	intsave_regs,global,class=BIGRAM,space=1,delta=1,noexec
    45                           	psect	rparam,global,class=COMRAM,space=1,delta=1,noexec
    46                           	psect	idloc,global,abs,ovrld,class=IDLOC,space=5,delta=1,noexec
    47                           	psect	config,global,abs,ovrld,class=CONFIG,space=4,delta=1,noexec
    48  0000                     
    49                           ; Version 2.32
    50                           ; Generated 02/02/2021 GMT
    51                           ; 
    52                           ; Copyright © 2021, Microchip Technology Inc. and its subsidiaries ("Microchip")
    53                           ; All rights reserved.
    54                           ; 
    55                           ; This software is developed by Microchip Technology Inc. and its subsidiaries ("Microch
      +                          ip").
    56                           ; 
    57                           ; Redistribution and use in source and binary forms, with or without modification, are
    58                           ; permitted provided that the following conditions are met:
    59                           ; 
    60                           ;     1. Redistributions of source code must retain the above copyright notice, this lis
      +                          t of
    61                           ;        conditions and the following disclaimer.
    62                           ; 
    63                           ;     2. Redistributions in binary form must reproduce the above copyright notice, this 
      +                          list
    64                           ;        of conditions and the following disclaimer in the documentation and/or other
    65                           ;        materials provided with the distribution. Publication is not required when
    66                           ;        this file is used in an embedded application.
    67                           ; 
    68                           ;     3. Microchip's name may not be used to endorse or promote products derived from th
      +                          is
    69                           ;        software without specific prior written permission.
    70                           ; 
    71                           ; THIS SOFTWARE IS PROVIDED BY MICROCHIP "AS IS" AND ANY EXPRESS OR IMPLIED WARRANTIES,
    72                           ; INCLUDING, BUT NOT LIMITED TO, THE IMPLIED WARRANTIES OF MERCHANTABILITY AND FITNESS F
      +                          OR
    73                           ; PURPOSE ARE DISCLAIMED.  IN NO EVENT SHALL MICROCHIP BE LIABLE FOR ANY DIRECT, INDIREC
      +                          T,
    74                           ; INCIDENTAL, SPECIAL, EXEMPLARY, OR CONSEQUENTIAL DAMAGES (INCLUDING BUT NOT LIMITED TO
    75                           ; PROCUREMENT OF SUBSTITUTE GOODS OR SERVICES; LOSS OF USE, DATA OR PROFITS; OR BUSINESS
    76                           ; INTERRUPTION) HOWSOEVER CAUSED AND ON ANY THEORY OF LIABILITY, WHETHER IN CONTRACT, ST
      +                          RICT
    77                           ; LIABILITY, OR TORT (INCLUDING NEGLIGENCE OR OTHERWISE) ARISING IN ANY WAY OUT OF THE U
      +                          SE OF
    78                           ; THIS SOFTWARE, EVEN IF ADVISED OF THE POSSIBILITY OF SUCH DAMAGE.
    79                           ; 
    80                           ; 
    81                           ; Code-generator required, PIC18F4520 Definitions
    82                           ; 
    83                           ; SFR Addresses
    84  0000                     
    85                           	psect	idataCOMRAM
    86  0029F2                     __pidataCOMRAM:
    87                           	callstack 0
    88                           
    89                           ;initializer for posAbastece@F2409
    90  0029F2  6C                 	db	108
    91  0029F3  69                 	db	105
    92  0029F4  74                 	db	116
    93  0029F5  72                 	db	114
    94  0029F6  6F                 	db	111
    95  0029F7  73                 	db	115
    96  0029F8  3A                 	db	58
    97  0029F9  00                 	db	0
    98                           
    99                           ;initializer for posAbastece@F2407
   100  0029FA  74                 	db	116
   101  0029FB  6F                 	db	111
   102  0029FC  74                 	db	116
   103  0029FD  61                 	db	97
   104  0029FE  6C                 	db	108
   105  0029FF  3A                 	db	58
   106  002A00  00                 	db	0
   107                           
   108                           ;initializer for abastece@F2401
   109  002A01  74                 	db	116
   110  002A02  6F                 	db	111
   111  002A03  74                 	db	116
   112  002A04  61                 	db	97
   113  002A05  6C                 	db	108
   114  002A06  3A                 	db	58
   115  002A07  00                 	db	0
   116                           
   117                           	psect	idataBANK0
   118  0029C2                     __pidataBANK0:
   119                           	callstack 0
   120                           
   121                           ;initializer for mensagemInicial@F2392
   122  0029C2  42                 	db	66
   123  0029C3  65                 	db	101
   124  0029C4  6D                 	db	109
   125  0029C5  2D                 	db	45
   126  0029C6  76                 	db	118
   127  0029C7  69                 	db	105
   128  0029C8  6E                 	db	110
   129  0029C9  64                 	db	100
   130  0029CA  6F                 	db	111
   131  0029CB  73                 	db	115
   132  0029CC  20                 	db	32
   133  0029CD  50                 	db	80
   134  0029CE  6F                 	db	111
   135  0029CF  73                 	db	115
   136  0029D0  74                 	db	116
   137  0029D1  6F                 	db	111
   138  0029D2  20                 	db	32
   139  0029D3  64                 	db	100
   140  0029D4  61                 	db	97
   141  0029D5  20                 	db	32
   142  0029D6  41                 	db	65
   143  0029D7  6E                 	db	110
   144  0029D8  61                 	db	97
   145  0029D9  00                 	db	0
   146                           
   147                           	psect	smallconst
   148  000600                     __psmallconst:
   149                           	callstack 0
   150  000600  00                 	db	0
   151  000601                     _valor@ssd$F211:
   152                           	callstack 0
   153  000601  3F                 	db	63
   154  000602  06                 	db	6
   155  000603  5B                 	db	91
   156  000604  4F                 	db	79
   157  000605  66                 	db	102
   158  000606  6D                 	db	109
   159  000607  7D                 	db	125
   160  000608  07                 	db	7
   161  000609  7F                 	db	127
   162  00060A  6F                 	db	111
   163  00060B  77                 	db	119
   164  00060C  7C                 	db	124
   165  00060D  39                 	db	57
   166  00060E  5E                 	db	94
   167  00060F  79                 	db	121
   168  000610  71                 	db	113
   169  000611                     __end_of_valor@ssd$F211:
   170                           	callstack 0
   171  0000                     _TRISE	set	3990
   172  0000                     _TRISC	set	3988
   173  0000                     _TRISB	set	3987
   174  0000                     _TRISA	set	3986
   175  0000                     _PORTE	set	3972
   176  0000                     _PORTC	set	3970
   177  0000                     _PORTB	set	3969
   178  0000                     _PORTA	set	3968
   179  0000                     _PORTD	set	3971
   180  0000                     _TRISD	set	3989
   181  000611                     STR_2:
   182  000611  41                 	db	65	;'A'
   183  000612  70                 	db	112	;'p'
   184  000613  6F                 	db	111	;'o'
   185  000614  73                 	db	115	;'s'
   186  000615  20                 	db	32
   187  000616  65                 	db	101	;'e'
   188  000617  66                 	db	102	;'f'
   189  000618  65                 	db	101	;'e'
   190  000619  74                 	db	116	;'t'
   191  00061A  75                 	db	117	;'u'
   192  00061B  61                 	db	97	;'a'
   193  00061C  72                 	db	114	;'r'
   194  00061D  20                 	db	32
   195  00061E  6F                 	db	111	;'o'
   196  00061F  20                 	db	32
   197  000620  20                 	db	32
   198  000621  0A                 	db	10
   199  000622  70                 	db	112	;'p'
   200  000623  61                 	db	97	;'a'
   201  000624  67                 	db	103	;'g'
   202  000625  61                 	db	97	;'a'
   203  000626  6D                 	db	109	;'m'
   204  000627  65                 	db	101	;'e'
   205  000628  6E                 	db	110	;'n'
   206  000629  74                 	db	116	;'t'
   207  00062A  6F                 	db	111	;'o'
   208  00062B  20                 	db	32
   209  00062C  20                 	db	32
   210  00062D  20                 	db	32
   211  00062E  20                 	db	32
   212  00062F  20                 	db	32
   213  000630  0A                 	db	10
   214  000631  20                 	db	32
   215  000632  20                 	db	32
   216  000633  20                 	db	32
   217  000634  20                 	db	32
   218  000635  20                 	db	32
   219  000636  20                 	db	32
   220  000637  20                 	db	32
   221  000638  20                 	db	32
   222  000639  20                 	db	32
   223  00063A  20                 	db	32
   224  00063B  0A                 	db	10
   225  00063C  50                 	db	80	;'P'
   226  00063D  72                 	db	114	;'r'
   227  00063E  65                 	db	101	;'e'
   228  00063F  73                 	db	115	;'s'
   229  000640  73                 	db	115	;'s'
   230  000641  69                 	db	105	;'i'
   231  000642  6F                 	db	111	;'o'
   232  000643  6E                 	db	110	;'n'
   233  000644  65                 	db	101	;'e'
   234  000645  20                 	db	32
   235  000646  28                 	db	40
   236  000647  2A                 	db	42
   237  000648  29                 	db	41
   238  000649  20                 	db	32
   239  00064A  20                 	db	32
   240  00064B  20                 	db	32
   241  00064C  00                 	db	0
   242  00064D                     STR_1:
   243  00064D  20                 	db	32
   244  00064E  31                 	db	49	;'1'
   245  00064F  20                 	db	32
   246  000650  2D                 	db	45
   247  000651  20                 	db	32
   248  000652  47                 	db	71	;'G'
   249  000653  61                 	db	97	;'a'
   250  000654  73                 	db	115	;'s'
   251  000655  6F                 	db	111	;'o'
   252  000656  6C                 	db	108	;'l'
   253  000657  69                 	db	105	;'i'
   254  000658  6E                 	db	110	;'n'
   255  000659  61                 	db	97	;'a'
   256  00065A  0A                 	db	10
   257  00065B  20                 	db	32
   258  00065C  32                 	db	50	;'2'
   259  00065D  20                 	db	32
   260  00065E  2D                 	db	45
   261  00065F  20                 	db	32
   262  000660  45                 	db	69	;'E'
   263  000661  74                 	db	116	;'t'
   264  000662  61                 	db	97	;'a'
   265  000663  6E                 	db	110	;'n'
   266  000664  6F                 	db	111	;'o'
   267  000665  6C                 	db	108	;'l'
   268  000666  0A                 	db	10
   269  000667  20                 	db	32
   270  000668  33                 	db	51	;'3'
   271  000669  20                 	db	32
   272  00066A  2D                 	db	45
   273  00066B  20                 	db	32
   274  00066C  44                 	db	68	;'D'
   275  00066D  69                 	db	105	;'i'
   276  00066E  65                 	db	101	;'e'
   277  00066F  73                 	db	115	;'s'
   278  000670  65                 	db	101	;'e'
   279  000671  6C                 	db	108	;'l'
   280  000672  0A                 	db	10
   281  000673  20                 	db	32
   282  000674  34                 	db	52	;'4'
   283  000675  20                 	db	32
   284  000676  2D                 	db	45
   285  000677  20                 	db	32
   286  000678  47                 	db	71	;'G'
   287  000679  20                 	db	32
   288  00067A  41                 	db	65	;'A'
   289  00067B  64                 	db	100	;'d'
   290  00067C  74                 	db	116	;'t'
   291  00067D  69                 	db	105	;'i'
   292  00067E  76                 	db	118	;'v'
   293  00067F  61                 	db	97	;'a'
   294  000680  64                 	db	100	;'d'
   295  000681  61                 	db	97	;'a'
   296  000682  00                 	db	0
   297  000683  00                 	db	0	; dummy byte at the end
   298  0000                     
   299                           ; #config settings
   300                           
   301                           	psect	cinit
   302  002848                     __pcinit:
   303                           	callstack 0
   304  002848                     start_initialization:
   305                           	callstack 0
   306  002848                     __initialization:
   307                           	callstack 0
   308                           
   309                           ; Initialize objects allocated to BANK0 (24 bytes)
   310                           ; load TBLPTR registers with __pidataBANK0
   311  002848  0EC2               	movlw	low __pidataBANK0
   312  00284A  6EF6               	movwf	tblptrl,c
   313  00284C  0E29               	movlw	high __pidataBANK0
   314  00284E  6EF7               	movwf	tblptrh,c
   315  002850  0E00               	movlw	low (__pidataBANK0 shr (0+16))
   316  002852  6EF8               	movwf	tblptru,c
   317  002854  EE00  F080         	lfsr	0,__pdataBANK0
   318  002858  EE10 F018          	lfsr	1,24
   319  00285C                     copy_data0:
   320  00285C  0009               	tblrd		*+
   321  00285E  CFF5 FFEE          	movff	tablat,postinc0
   322  002862  50E5               	movf	postdec1,w,c
   323  002864  50E1               	movf	fsr1l,w,c
   324  002866  E1FA               	bnz	copy_data0
   325                           
   326                           ; Initialize objects allocated to COMRAM (22 bytes)
   327                           ; load TBLPTR registers with __pidataCOMRAM
   328  002868  0EF2               	movlw	low __pidataCOMRAM
   329  00286A  6EF6               	movwf	tblptrl,c
   330  00286C  0E29               	movlw	high __pidataCOMRAM
   331  00286E  6EF7               	movwf	tblptrh,c
   332  002870  0E00               	movlw	low (__pidataCOMRAM shr (0+16))
   333  002872  6EF8               	movwf	tblptru,c
   334  002874  EE00  F051         	lfsr	0,__pdataCOMRAM
   335  002878  EE10 F016          	lfsr	1,22
   336  00287C                     copy_data1:
   337  00287C  0009               	tblrd		*+
   338  00287E  CFF5 FFEE          	movff	tablat,postinc0
   339  002882  50E5               	movf	postdec1,w,c
   340  002884  50E1               	movf	fsr1l,w,c
   341  002886  E1FA               	bnz	copy_data1
   342                           
   343                           ; Clear objects allocated to COMRAM (14 bytes)
   344  002888  EE00  F067         	lfsr	0,__pbssCOMRAM
   345  00288C  0E0E               	movlw	14
   346  00288E                     clear_0:
   347  00288E  6AEE               	clrf	postinc0,c
   348  002890  06E8               	decf	wreg,f,c
   349  002892  E1FD               	bnz	clear_0
   350  002894                     end_of_initialization:
   351                           	callstack 0
   352  002894                     __end_of__initialization:
   353                           	callstack 0
   354  002894  0E00               	movlw	low (__Lmediumconst shr (0+16))
   355  002896  6EF8               	movwf	tblptru,c
   356  002898  0100               	movlb	0
   357  00289A  EF85  F00E         	goto	_main	;jump to C main() function
   358                           
   359                           	psect	bssCOMRAM
   360  000067                     __pbssCOMRAM:
   361                           	callstack 0
   362  000067                     _litro:
   363                           	callstack 0
   364  000067                     	ds	2
   365  000069                     kpDebounce@valorAntigo:
   366                           	callstack 0
   367  000069                     	ds	2
   368  00006B                     kpDebounce@valorNovo:
   369                           	callstack 0
   370  00006B                     	ds	2
   371  00006D                     _valor:
   372                           	callstack 0
   373  00006D                     	ds	2
   374  00006F                     _v3:
   375                           	callstack 0
   376  00006F                     	ds	1
   377  000070                     _v2:
   378                           	callstack 0
   379  000070                     	ds	1
   380  000071                     _v1:
   381                           	callstack 0
   382  000071                     	ds	1
   383  000072                     _v0:
   384                           	callstack 0
   385  000072                     	ds	1
   386  000073                     _display:
   387                           	callstack 0
   388  000073                     	ds	1
   389  000074                     kpDebounce@tempo:
   390                           	callstack 0
   391  000074                     	ds	1
   392                           
   393                           	psect	dataCOMRAM
   394  000051                     __pdataCOMRAM:
   395                           	callstack 0
   396  000051                     posAbastece@F2409:
   397                           	callstack 0
   398  000051                     	ds	8
   399  000059                     posAbastece@F2407:
   400                           	callstack 0
   401  000059                     	ds	7
   402  000060                     abastece@F2401:
   403                           	callstack 0
   404  000060                     	ds	7
   405                           
   406                           	psect	dataBANK0
   407  000080                     __pdataBANK0:
   408                           	callstack 0
   409  000080                     mensagemInicial@F2392:
   410                           	callstack 0
   411  000080                     	ds	24
   412                           
   413                           	psect	cstackCOMRAM
   414  000001                     __pcstackCOMRAM:
   415                           	callstack 0
   416  000001                     ??_kpDebounce:
   417  000001                     ?_kpRead:
   418                           	callstack 0
   419  000001                     ?___wmul:
   420                           	callstack 0
   421  000001                     ?___lwdiv:
   422                           	callstack 0
   423  000001                     ?___fladd:
   424                           	callstack 0
   425  000001                     ?___xxtofl:
   426                           	callstack 0
   427  000001                     Delay40us@i:
   428                           	callstack 0
   429  000001                     tempo@ms:
   430                           	callstack 0
   431  000001                     digitalWrite@pin:
   432                           	callstack 0
   433  000001                     pinMode@pin:
   434                           	callstack 0
   435  000001                     ___wmul@multiplier:
   436                           	callstack 0
   437  000001                     ___lwdiv@dividend:
   438                           	callstack 0
   439  000001                     ___flge@ff1:
   440                           	callstack 0
   441  000001                     ___fladd@b:
   442                           	callstack 0
   443  000001                     ___xxtofl@val:
   444                           	callstack 0
   445                           
   446                           ; 4 bytes @ 0x0
   447  000001                     	ds	1
   448  000002                     Delay2ms@i:
   449                           	callstack 0
   450  000002                     tempo@i:
   451                           	callstack 0
   452                           
   453                           ; 1 bytes @ 0x1
   454  000002                     	ds	1
   455  000003                     tempo@j:
   456                           	callstack 0
   457  000003                     digitalWrite@value:
   458                           	callstack 0
   459  000003                     pinMode@type:
   460                           	callstack 0
   461  000003                     ___wmul@multiplicand:
   462                           	callstack 0
   463  000003                     ___lwdiv@divisor:
   464                           	callstack 0
   465                           
   466                           ; 2 bytes @ 0x2
   467  000003                     	ds	1
   468  000004                     tempo@k:
   469                           	callstack 0
   470                           
   471                           ; 1 bytes @ 0x3
   472  000004                     	ds	1
   473  000005                     ??_digitalWrite:
   474  000005                     ??_pinMode:
   475  000005                     ??___xxtofl:
   476  000005                     segundo@s:
   477                           	callstack 0
   478  000005                     ___wmul@product:
   479                           	callstack 0
   480  000005                     ___lwdiv@quotient:
   481                           	callstack 0
   482  000005                     ___flge@ff2:
   483                           	callstack 0
   484  000005                     ___fladd@a:
   485                           	callstack 0
   486                           
   487                           ; 4 bytes @ 0x4
   488  000005                     	ds	1
   489  000006                     kpDebounce@old_D:
   490                           	callstack 0
   491  000006                     segundo@i:
   492                           	callstack 0
   493                           
   494                           ; 1 bytes @ 0x5
   495  000006                     	ds	1
   496  000007                     ??_ssdUpdate:
   497  000007                     lcdCommand@old_D:
   498                           	callstack 0
   499  000007                     lcdData@valor:
   500                           	callstack 0
   501  000007                     ___lwdiv@counter:
   502                           	callstack 0
   503  000007                     kpDebounce@k:
   504                           	callstack 0
   505                           
   506                           ; 2 bytes @ 0x6
   507  000007                     	ds	1
   508  000008                     ??_pwmSet1:
   509  000008                     ?___lwmod:
   510                           	callstack 0
   511  000008                     lcdCommand@cmd:
   512                           	callstack 0
   513  000008                     lcdData@old_D:
   514                           	callstack 0
   515  000008                     ___lwmod@dividend:
   516                           	callstack 0
   517                           
   518                           ; 2 bytes @ 0x7
   519  000008                     	ds	1
   520  000009                     ??___fladd:
   521  000009                     ??___flge:
   522  000009                     kpDebounce@j:
   523                           	callstack 0
   524  000009                     ___xxtofl@sign:
   525                           	callstack 0
   526  000009                     printf@msg:
   527                           	callstack 0
   528                           
   529                           ; 2 bytes @ 0x8
   530  000009                     	ds	1
   531  00000A                     kpDebounce@i:
   532                           	callstack 0
   533  00000A                     pwmSet1@porcento:
   534                           	callstack 0
   535  00000A                     ___xxtofl@exp:
   536                           	callstack 0
   537  00000A                     ___lwmod@divisor:
   538                           	callstack 0
   539                           
   540                           ; 2 bytes @ 0x9
   541  00000A                     	ds	1
   542  00000B                     ??_printf:
   543  00000B                     pwmSet1@val:
   544                           	callstack 0
   545  00000B                     ___xxtofl@arg:
   546                           	callstack 0
   547                           
   548                           ; 4 bytes @ 0xA
   549  00000B                     	ds	1
   550  00000C                     ___lwmod@counter:
   551                           	callstack 0
   552                           
   553                           ; 1 bytes @ 0xB
   554  00000C                     	ds	1
   555  00000D                     ssdDigit@pos:
   556                           	callstack 0
   557  00000D                     ___fladd@signs:
   558                           	callstack 0
   559  00000D                     printf@linha:
   560                           	callstack 0
   561                           
   562                           ; 2 bytes @ 0xC
   563  00000D                     	ds	1
   564  00000E                     ssdDigit@val:
   565                           	callstack 0
   566  00000E                     ___fladd@aexp:
   567                           	callstack 0
   568                           
   569                           ; 1 bytes @ 0xD
   570  00000E                     	ds	1
   571  00000F                     ?___flmul:
   572                           	callstack 0
   573  00000F                     ___fladd@bexp:
   574                           	callstack 0
   575  00000F                     printf@i:
   576                           	callstack 0
   577  00000F                     ___flmul@b:
   578                           	callstack 0
   579                           
   580                           ; 4 bytes @ 0xE
   581  00000F                     	ds	1
   582  000010                     ___fladd@grs:
   583                           	callstack 0
   584                           
   585                           ; 1 bytes @ 0xF
   586  000010                     	ds	1
   587  000011                     posAbastece@preco:
   588                           	callstack 0
   589  000011                     mensagemInicial@msgInicial:
   590                           	callstack 0
   591                           
   592                           ; 24 bytes @ 0x10
   593  000011                     	ds	2
   594  000013                     posAbastece@litroTotal:
   595                           	callstack 0
   596  000013                     ___flmul@a:
   597                           	callstack 0
   598                           
   599                           ; 4 bytes @ 0x12
   600  000013                     	ds	2
   601  000015                     posAbastece@totalL:
   602                           	callstack 0
   603                           
   604                           ; 8 bytes @ 0x14
   605  000015                     	ds	2
   606  000017                     ??___flmul:
   607                           
   608                           ; 1 bytes @ 0x16
   609  000017                     	ds	4
   610  00001B                     ___flmul@sign:
   611                           	callstack 0
   612                           
   613                           ; 1 bytes @ 0x1A
   614  00001B                     	ds	1
   615  00001C                     ___flmul@grs:
   616                           	callstack 0
   617                           
   618                           ; 4 bytes @ 0x1B
   619  00001C                     	ds	1
   620  00001D                     posAbastece@totalP:
   621                           	callstack 0
   622                           
   623                           ; 7 bytes @ 0x1C
   624  00001D                     	ds	3
   625  000020                     ___flmul@aexp:
   626                           	callstack 0
   627                           
   628                           ; 1 bytes @ 0x1F
   629  000020                     	ds	1
   630  000021                     ___flmul@bexp:
   631                           	callstack 0
   632                           
   633                           ; 1 bytes @ 0x20
   634  000021                     	ds	1
   635  000022                     ___flmul@prod:
   636                           	callstack 0
   637                           
   638                           ; 4 bytes @ 0x21
   639  000022                     	ds	2
   640  000024                     posAbastece@continuar:
   641                           	callstack 0
   642                           
   643                           ; 1 bytes @ 0x23
   644  000024                     	ds	1
   645  000025                     posAbastece@i:
   646                           	callstack 0
   647                           
   648                           ; 1 bytes @ 0x24
   649  000025                     	ds	1
   650  000026                     ___flmul@temp:
   651                           	callstack 0
   652                           
   653                           ; 2 bytes @ 0x25
   654  000026                     	ds	2
   655  000028                     ?___fltol:
   656                           	callstack 0
   657  000028                     ___fltol@f1:
   658                           	callstack 0
   659                           
   660                           ; 4 bytes @ 0x27
   661  000028                     	ds	1
   662  000029                     mensagemInicial@i:
   663                           	callstack 0
   664                           
   665                           ; 1 bytes @ 0x28
   666  000029                     	ds	3
   667  00002C                     ??___fltol:
   668                           
   669                           ; 1 bytes @ 0x2B
   670  00002C                     	ds	4
   671  000030                     ___fltol@sign1:
   672                           	callstack 0
   673                           
   674                           ; 1 bytes @ 0x2F
   675  000030                     	ds	1
   676  000031                     ___fltol@exp1:
   677                           	callstack 0
   678                           
   679                           ; 1 bytes @ 0x30
   680  000031                     	ds	1
   681  000032                     abastece@valor:
   682                           	callstack 0
   683                           
   684                           ; 4 bytes @ 0x31
   685  000032                     	ds	4
   686  000036                     abastece@indice:
   687                           	callstack 0
   688                           
   689                           ; 2 bytes @ 0x35
   690  000036                     	ds	2
   691  000038                     ??_abastece:
   692                           
   693                           ; 1 bytes @ 0x37
   694  000038                     	ds	3
   695  00003B                     abastece@total:
   696                           	callstack 0
   697                           
   698                           ; 7 bytes @ 0x3A
   699  00003B                     	ds	7
   700  000042                     abastece@litroTotal:
   701                           	callstack 0
   702                           
   703                           ; 2 bytes @ 0x41
   704  000042                     	ds	2
   705  000044                     abastece@i:
   706                           	callstack 0
   707                           
   708                           ; 4 bytes @ 0x43
   709  000044                     	ds	4
   710  000048                     abastece@j:
   711                           	callstack 0
   712                           
   713                           ; 1 bytes @ 0x47
   714  000048                     	ds	1
   715  000049                     abastece@preco:
   716                           	callstack 0
   717                           
   718                           ; 2 bytes @ 0x48
   719  000049                     	ds	2
   720  00004B                     main@i:
   721                           	callstack 0
   722                           
   723                           ; 4 bytes @ 0x4A
   724  00004B                     	ds	4
   725  00004F                     main@tecla:
   726                           	callstack 0
   727                           
   728                           ; 2 bytes @ 0x4E
   729  00004F                     	ds	2
   730                           
   731 ;;
   732 ;;Main: autosize = 0, tempsize = 0, incstack = 0, save=0
   733 ;;
   734 ;; *************** function _main *****************
   735 ;; Defined at:
   736 ;;		line 11 in file "main.c"
   737 ;; Parameters:    Size  Location     Type
   738 ;;		None
   739 ;; Auto vars:     Size  Location     Type
   740 ;;  i               4   74[COMRAM] float 
   741 ;;  tecla           2   78[COMRAM] unsigned int 
   742 ;;  temp            2    0        unsigned int 
   743 ;; Return value:  Size  Location     Type
   744 ;;                  1    wreg      void 
   745 ;; Registers used:
   746 ;;		wreg, fsr1l, fsr1h, fsr2l, fsr2h, status,2, status,0, tblptrl, tblptrh, tblptru, prodl, prodh, cstack
   747 ;; Tracked objects:
   748 ;;		On entry : 0/0
   749 ;;		On exit  : 0/0
   750 ;;		Unchanged: 0/0
   751 ;; Data sizes:     COMRAM   BANK0   BANK1   BANK2   BANK3   BANK4   BANK5
   752 ;;      Params:         0       0       0       0       0       0       0
   753 ;;      Locals:         6       0       0       0       0       0       0
   754 ;;      Temps:          0       0       0       0       0       0       0
   755 ;;      Totals:         6       0       0       0       0       0       0
   756 ;;Total ram usage:        6 bytes
   757 ;; Hardware stack levels required when called: 6
   758 ;; This function calls:
   759 ;;		___fladd
   760 ;;		___flge
   761 ;;		_abastece
   762 ;;		_kpDebounce
   763 ;;		_kpInit
   764 ;;		_kpRead
   765 ;;		_lcdInit
   766 ;;		_mensagemInicial
   767 ;;		_pwmInit
   768 ;;		_ssdInit
   769 ;;		_ssdUpdate
   770 ;; This function is called by:
   771 ;;		Startup code after reset
   772 ;; This function uses a non-reentrant model
   773 ;;
   774                           
   775                           	psect	text0
   776  001D0A                     __ptext0:
   777                           	callstack 0
   778  001D0A                     _main:
   779                           	callstack 25
   780  001D0A                     
   781                           ;main.c: 13:     unsigned int tecla, temp;;main.c: 15:     TRISD = 0x00;
   782  001D0A  0E00               	movlw	0
   783  001D0C  6E95               	movwf	149,c	;volatile
   784                           
   785                           ;main.c: 16:     PORTD = 0x00;
   786  001D0E  0E00               	movlw	0
   787  001D10  6E83               	movwf	131,c	;volatile
   788  001D12                     
   789                           ;main.c: 18:     lcdInit();
   790  001D12  ECB7  F012         	call	_lcdInit	;wreg free
   791  001D16                     
   792                           ;main.c: 19:     mensagemInicial();
   793  001D16  EC63  F013         	call	_mensagemInicial	;wreg free
   794  001D1A                     
   795                           ;main.c: 21:     ssdInit();
   796  001D1A  EC4F  F014         	call	_ssdInit	;wreg free
   797  001D1E                     
   798                           ;main.c: 22:     kpInit();
   799  001D1E  EC0E  F015         	call	_kpInit	;wreg free
   800  001D22                     
   801                           ;main.c: 23:     pwmInit();
   802  001D22  EC04  F015         	call	_pwmInit	;wreg free
   803  001D26                     l3211:
   804                           
   805                           ;main.c: 26:         ssdUpdate();
   806  001D26  EC08  F010         	call	_ssdUpdate	;wreg free
   807  001D2A                     
   808                           ;main.c: 27:         kpDebounce();
   809  001D2A  EC4B  F00F         	call	_kpDebounce	;wreg free
   810  001D2E                     
   811                           ;main.c: 28:         tecla = kpRead();
   812  001D2E  EC13  F015         	call	_kpRead	;wreg free
   813  001D32  C001  F04F         	movff	?_kpRead,main@tecla
   814  001D36  C002  F050         	movff	?_kpRead+1,main@tecla+1
   815  001D3A                     
   816                           ;main.c: 30:         if (((tecla) & (1<<(3)))) {
   817  001D3A  A64F               	btfss	main@tecla^0,3,c
   818  001D3C  EFA2  F00E         	goto	u3411
   819  001D40  EFA4  F00E         	goto	u3410
   820  001D44                     u3411:
   821  001D44  EFB2  F00E         	goto	l3221
   822  001D48                     u3410:
   823  001D48                     
   824                           ;main.c: 31:             abastece(6.108, 3);
   825  001D48  0EBC               	movlw	188
   826  001D4A  6E32               	movwf	abastece@valor^0,c
   827  001D4C  0E74               	movlw	116
   828  001D4E  6E33               	movwf	(abastece@valor+1)^0,c
   829  001D50  0EC3               	movlw	195
   830  001D52  6E34               	movwf	(abastece@valor+2)^0,c
   831  001D54  0E40               	movlw	64
   832  001D56  6E35               	movwf	(abastece@valor+3)^0,c
   833  001D58  0E00               	movlw	0
   834  001D5A  6E37               	movwf	(abastece@indice+1)^0,c
   835  001D5C  0E03               	movlw	3
   836  001D5E  6E36               	movwf	abastece@indice^0,c
   837  001D60  ECA2  F005         	call	_abastece	;wreg free
   838  001D64                     l3221:
   839                           
   840                           ;main.c: 33:         if (((tecla) & (1<<(7)))) {
   841  001D64  AE4F               	btfss	main@tecla^0,7,c
   842  001D66  EFB7  F00E         	goto	u3421
   843  001D6A  EFB9  F00E         	goto	u3420
   844  001D6E                     u3421:
   845  001D6E  EFC7  F00E         	goto	l3225
   846  001D72                     u3420:
   847  001D72                     
   848                           ;main.c: 34:             abastece(4.324, 7);
   849  001D72  0E35               	movlw	53
   850  001D74  6E32               	movwf	abastece@valor^0,c
   851  001D76  0E5E               	movlw	94
   852  001D78  6E33               	movwf	(abastece@valor+1)^0,c
   853  001D7A  0E8A               	movlw	138
   854  001D7C  6E34               	movwf	(abastece@valor+2)^0,c
   855  001D7E  0E40               	movlw	64
   856  001D80  6E35               	movwf	(abastece@valor+3)^0,c
   857  001D82  0E00               	movlw	0
   858  001D84  6E37               	movwf	(abastece@indice+1)^0,c
   859  001D86  0E07               	movlw	7
   860  001D88  6E36               	movwf	abastece@indice^0,c
   861  001D8A  ECA2  F005         	call	_abastece	;wreg free
   862  001D8E                     l3225:
   863                           
   864                           ;main.c: 36:         if (((tecla) & (1<<(11)))) {
   865  001D8E  A650               	btfss	(main@tecla+1)^0,3,c
   866  001D90  EFCC  F00E         	goto	u3431
   867  001D94  EFCE  F00E         	goto	u3430
   868  001D98                     u3431:
   869  001D98  EFDC  F00E         	goto	l3229
   870  001D9C                     u3430:
   871  001D9C                     
   872                           ;main.c: 37:             abastece(4.718, 11);
   873  001D9C  0EDB               	movlw	219
   874  001D9E  6E32               	movwf	abastece@valor^0,c
   875  001DA0  0EF9               	movlw	249
   876  001DA2  6E33               	movwf	(abastece@valor+1)^0,c
   877  001DA4  0E96               	movlw	150
   878  001DA6  6E34               	movwf	(abastece@valor+2)^0,c
   879  001DA8  0E40               	movlw	64
   880  001DAA  6E35               	movwf	(abastece@valor+3)^0,c
   881  001DAC  0E00               	movlw	0
   882  001DAE  6E37               	movwf	(abastece@indice+1)^0,c
   883  001DB0  0E0B               	movlw	11
   884  001DB2  6E36               	movwf	abastece@indice^0,c
   885  001DB4  ECA2  F005         	call	_abastece	;wreg free
   886  001DB8                     l3229:
   887                           
   888                           ;main.c: 39:         if (((tecla) & (1<<(2)))) {
   889  001DB8  A44F               	btfss	main@tecla^0,2,c
   890  001DBA  EFE1  F00E         	goto	u3441
   891  001DBE  EFE3  F00E         	goto	u3440
   892  001DC2                     u3441:
   893  001DC2  EFF1  F00E         	goto	l3233
   894  001DC6                     u3440:
   895  001DC6                     
   896                           ;main.c: 40:             abastece(6.195, 2);
   897  001DC6  0E71               	movlw	113
   898  001DC8  6E32               	movwf	abastece@valor^0,c
   899  001DCA  0E3D               	movlw	61
   900  001DCC  6E33               	movwf	(abastece@valor+1)^0,c
   901  001DCE  0EC6               	movlw	198
   902  001DD0  6E34               	movwf	(abastece@valor+2)^0,c
   903  001DD2  0E40               	movlw	64
   904  001DD4  6E35               	movwf	(abastece@valor+3)^0,c
   905  001DD6  0E00               	movlw	0
   906  001DD8  6E37               	movwf	(abastece@indice+1)^0,c
   907  001DDA  0E02               	movlw	2
   908  001DDC  6E36               	movwf	abastece@indice^0,c
   909  001DDE  ECA2  F005         	call	_abastece	;wreg free
   910  001DE2                     l3233:
   911                           
   912                           ;main.c: 42:         for (i = 0; i < 100; i++);
   913  001DE2  0E00               	movlw	0
   914  001DE4  6E4B               	movwf	main@i^0,c
   915  001DE6  0E00               	movlw	0
   916  001DE8  6E4C               	movwf	(main@i+1)^0,c
   917  001DEA  0E00               	movlw	0
   918  001DEC  6E4D               	movwf	(main@i+2)^0,c
   919  001DEE  0E00               	movlw	0
   920  001DF0  6E4E               	movwf	(main@i+3)^0,c
   921  001DF2  C04B  F001         	movff	main@i,___flge@ff1
   922  001DF6  C04C  F002         	movff	main@i+1,___flge@ff1+1
   923  001DFA  C04D  F003         	movff	main@i+2,___flge@ff1+2
   924  001DFE  C04E  F004         	movff	main@i+3,___flge@ff1+3
   925  001E02  0E00               	movlw	0
   926  001E04  6E05               	movwf	___flge@ff2^0,c
   927  001E06  0E00               	movlw	0
   928  001E08  6E06               	movwf	(___flge@ff2+1)^0,c
   929  001E0A  0EC8               	movlw	200
   930  001E0C  6E07               	movwf	(___flge@ff2+2)^0,c
   931  001E0E  0E42               	movlw	66
   932  001E10  6E08               	movwf	(___flge@ff2+3)^0,c
   933  001E12  EC33  F011         	call	___flge	;wreg free
   934  001E16  A0D8               	btfss	status,0,c
   935  001E18  EF10  F00F         	goto	u3451
   936  001E1C  EF12  F00F         	goto	u3450
   937  001E20                     u3451:
   938  001E20  EF14  F00F         	goto	l3239
   939  001E24                     u3450:
   940  001E24  EF93  F00E         	goto	l3211
   941  001E28                     l3239:
   942  001E28  C04B  F001         	movff	main@i,___fladd@b
   943  001E2C  C04C  F002         	movff	main@i+1,___fladd@b+1
   944  001E30  C04D  F003         	movff	main@i+2,___fladd@b+2
   945  001E34  C04E  F004         	movff	main@i+3,___fladd@b+3
   946  001E38  0E00               	movlw	0
   947  001E3A  6E05               	movwf	___fladd@a^0,c
   948  001E3C  0E00               	movlw	0
   949  001E3E  6E06               	movwf	(___fladd@a+1)^0,c
   950  001E40  0E80               	movlw	128
   951  001E42  6E07               	movwf	(___fladd@a+2)^0,c
   952  001E44  0E3F               	movlw	63
   953  001E46  6E08               	movwf	(___fladd@a+3)^0,c
   954  001E48  EC42  F003         	call	___fladd	;wreg free
   955  001E4C  C001  F04B         	movff	?___fladd,main@i
   956  001E50  C002  F04C         	movff	?___fladd+1,main@i+1
   957  001E54  C003  F04D         	movff	?___fladd+2,main@i+2
   958  001E58  C004  F04E         	movff	?___fladd+3,main@i+3
   959  001E5C  C04B  F001         	movff	main@i,___flge@ff1
   960  001E60  C04C  F002         	movff	main@i+1,___flge@ff1+1
   961  001E64  C04D  F003         	movff	main@i+2,___flge@ff1+2
   962  001E68  C04E  F004         	movff	main@i+3,___flge@ff1+3
   963  001E6C  0E00               	movlw	0
   964  001E6E  6E05               	movwf	___flge@ff2^0,c
   965  001E70  0E00               	movlw	0
   966  001E72  6E06               	movwf	(___flge@ff2+1)^0,c
   967  001E74  0EC8               	movlw	200
   968  001E76  6E07               	movwf	(___flge@ff2+2)^0,c
   969  001E78  0E42               	movlw	66
   970  001E7A  6E08               	movwf	(___flge@ff2+3)^0,c
   971  001E7C  EC33  F011         	call	___flge	;wreg free
   972  001E80  A0D8               	btfss	status,0,c
   973  001E82  EF45  F00F         	goto	u3461
   974  001E86  EF47  F00F         	goto	u3460
   975  001E8A                     u3461:
   976  001E8A  EF14  F00F         	goto	l3239
   977  001E8E                     u3460:
   978  001E8E  EF93  F00E         	goto	l3211
   979  001E92  EF00  F000         	goto	start
   980  001E96                     __end_of_main:
   981                           	callstack 0
   982                           
   983 ;; *************** function _ssdInit *****************
   984 ;; Defined at:
   985 ;;		line 101 in file "ssd.c"
   986 ;; Parameters:    Size  Location     Type
   987 ;;		None
   988 ;; Auto vars:     Size  Location     Type
   989 ;;		None
   990 ;; Return value:  Size  Location     Type
   991 ;;                  1    wreg      void 
   992 ;; Registers used:
   993 ;;		wreg, status,2, status,0, cstack
   994 ;; Tracked objects:
   995 ;;		On entry : 0/0
   996 ;;		On exit  : 0/0
   997 ;;		Unchanged: 0/0
   998 ;; Data sizes:     COMRAM   BANK0   BANK1   BANK2   BANK3   BANK4   BANK5
   999 ;;      Params:         0       0       0       0       0       0       0
  1000 ;;      Locals:         0       0       0       0       0       0       0
  1001 ;;      Temps:          0       0       0       0       0       0       0
  1002 ;;      Totals:         0       0       0       0       0       0       0
  1003 ;;Total ram usage:        0 bytes
  1004 ;; Hardware stack levels used: 1
  1005 ;; Hardware stack levels required when called: 1
  1006 ;; This function calls:
  1007 ;;		_pinMode
  1008 ;; This function is called by:
  1009 ;;		_main
  1010 ;; This function uses a non-reentrant model
  1011 ;;
  1012                           
  1013                           	psect	text1
  1014  00289E                     __ptext1:
  1015                           	callstack 0
  1016  00289E                     _ssdInit:
  1017                           	callstack 29
  1018  00289E                     
  1019                           ;ssd.c: 103:     pinMode(PIN_A2, 0);
  1020  00289E  0E00               	movlw	0
  1021  0028A0  6E02               	movwf	(pinMode@pin+1)^0,c
  1022  0028A2  0E02               	movlw	2
  1023  0028A4  6E01               	movwf	pinMode@pin^0,c
  1024  0028A6  0E00               	movlw	0
  1025  0028A8  6E04               	movwf	(pinMode@type+1)^0,c
  1026  0028AA  0E00               	movlw	0
  1027  0028AC  6E03               	movwf	pinMode@type^0,c
  1028  0028AE  EC5D  F00B         	call	_pinMode	;wreg free
  1029                           
  1030                           ;ssd.c: 104:     pinMode(PIN_A3, 0);
  1031  0028B2  0E00               	movlw	0
  1032  0028B4  6E02               	movwf	(pinMode@pin+1)^0,c
  1033  0028B6  0E03               	movlw	3
  1034  0028B8  6E01               	movwf	pinMode@pin^0,c
  1035  0028BA  0E00               	movlw	0
  1036  0028BC  6E04               	movwf	(pinMode@type+1)^0,c
  1037  0028BE  0E00               	movlw	0
  1038  0028C0  6E03               	movwf	pinMode@type^0,c
  1039  0028C2  EC5D  F00B         	call	_pinMode	;wreg free
  1040                           
  1041                           ;ssd.c: 105:     pinMode(PIN_A4, 0);
  1042  0028C6  0E00               	movlw	0
  1043  0028C8  6E02               	movwf	(pinMode@pin+1)^0,c
  1044  0028CA  0E04               	movlw	4
  1045  0028CC  6E01               	movwf	pinMode@pin^0,c
  1046  0028CE  0E00               	movlw	0
  1047  0028D0  6E04               	movwf	(pinMode@type+1)^0,c
  1048  0028D2  0E00               	movlw	0
  1049  0028D4  6E03               	movwf	pinMode@type^0,c
  1050  0028D6  EC5D  F00B         	call	_pinMode	;wreg free
  1051                           
  1052                           ;ssd.c: 106:     pinMode(PIN_A5, 0);
  1053  0028DA  0E00               	movlw	0
  1054  0028DC  6E02               	movwf	(pinMode@pin+1)^0,c
  1055  0028DE  0E05               	movlw	5
  1056  0028E0  6E01               	movwf	pinMode@pin^0,c
  1057  0028E2  0E00               	movlw	0
  1058  0028E4  6E04               	movwf	(pinMode@type+1)^0,c
  1059  0028E6  0E00               	movlw	0
  1060  0028E8  6E03               	movwf	pinMode@type^0,c
  1061  0028EA  EC5D  F00B         	call	_pinMode	;wreg free
  1062  0028EE                     
  1063                           ;ssd.c: 109:     TRISD = 0x00;
  1064  0028EE  0E00               	movlw	0
  1065  0028F0  6E95               	movwf	149,c	;volatile
  1066  0028F2  0012               	return		;funcret
  1067  0028F4                     __end_of_ssdInit:
  1068                           	callstack 0
  1069                           
  1070 ;; *************** function _pwmInit *****************
  1071 ;; Defined at:
  1072 ;;		line 59 in file "pwm.c"
  1073 ;; Parameters:    Size  Location     Type
  1074 ;;		None
  1075 ;; Auto vars:     Size  Location     Type
  1076 ;;		None
  1077 ;; Return value:  Size  Location     Type
  1078 ;;                  1    wreg      void 
  1079 ;; Registers used:
  1080 ;;		wreg, status,2, status,0
  1081 ;; Tracked objects:
  1082 ;;		On entry : 0/0
  1083 ;;		On exit  : 0/0
  1084 ;;		Unchanged: 0/0
  1085 ;; Data sizes:     COMRAM   BANK0   BANK1   BANK2   BANK3   BANK4   BANK5
  1086 ;;      Params:         0       0       0       0       0       0       0
  1087 ;;      Locals:         0       0       0       0       0       0       0
  1088 ;;      Temps:          0       0       0       0       0       0       0
  1089 ;;      Totals:         0       0       0       0       0       0       0
  1090 ;;Total ram usage:        0 bytes
  1091 ;; Hardware stack levels used: 1
  1092 ;; This function calls:
  1093 ;;		Nothing
  1094 ;; This function is called by:
  1095 ;;		_main
  1096 ;; This function uses a non-reentrant model
  1097 ;;
  1098                           
  1099                           	psect	text2
  1100  002A08                     __ptext2:
  1101                           	callstack 0
  1102  002A08                     _pwmInit:
  1103                           	callstack 30
  1104  002A08                     
  1105                           ;pwm.c: 61:  (((*(volatile __near unsigned char*)0xF94)) &= ~(1<<1));
  1106  002A08  9294               	bcf	148,1,c	;volatile
  1107                           
  1108                           ;pwm.c: 62:  (((*(volatile __near unsigned char*)0xF94)) &= ~(1<<2));
  1109  002A0A  9494               	bcf	148,2,c	;volatile
  1110  002A0C                     
  1111                           ;pwm.c: 64:  (*(volatile __near unsigned char*)0xFCA) |= 0b00000011;
  1112  002A0C  0E03               	movlw	3
  1113  002A0E  12CA               	iorwf	202,f,c	;volatile
  1114  002A10                     
  1115                           ;pwm.c: 65:  (((*(volatile __near unsigned char*)0xFCA)) |= (1<<2));
  1116  002A10  84CA               	bsf	202,2,c	;volatile
  1117                           
  1118                           ;pwm.c: 68:  (*(volatile __near unsigned char*)0xFBD) |= 0b00001100;
  1119  002A12  0E0C               	movlw	12
  1120  002A14  12BD               	iorwf	189,f,c	;volatile
  1121                           
  1122                           ;pwm.c: 69:  (*(volatile __near unsigned char*)0xFBA) |= 0b00001100;
  1123  002A16  0E0C               	movlw	12
  1124  002A18  12BA               	iorwf	186,f,c	;volatile
  1125  002A1A  0012               	return		;funcret
  1126  002A1C                     __end_of_pwmInit:
  1127                           	callstack 0
  1128                           
  1129 ;; *************** function _mensagemInicial *****************
  1130 ;; Defined at:
  1131 ;;		line 48 in file "posto.c"
  1132 ;; Parameters:    Size  Location     Type
  1133 ;;		None
  1134 ;; Auto vars:     Size  Location     Type
  1135 ;;  msgInicial     24   16[COMRAM] unsigned char [24]
  1136 ;;  i               1   40[COMRAM] unsigned char 
  1137 ;; Return value:  Size  Location     Type
  1138 ;;                  1    wreg      void 
  1139 ;; Registers used:
  1140 ;;		wreg, fsr1l, fsr1h, fsr2l, fsr2h, status,2, status,0, tblptrl, tblptrh, tblptru, cstack
  1141 ;; Tracked objects:
  1142 ;;		On entry : 0/0
  1143 ;;		On exit  : 0/0
  1144 ;;		Unchanged: 0/0
  1145 ;; Data sizes:     COMRAM   BANK0   BANK1   BANK2   BANK3   BANK4   BANK5
  1146 ;;      Params:         0       0       0       0       0       0       0
  1147 ;;      Locals:        25       0       0       0       0       0       0
  1148 ;;      Temps:          0       0       0       0       0       0       0
  1149 ;;      Totals:        25       0       0       0       0       0       0
  1150 ;;Total ram usage:       25 bytes
  1151 ;; Hardware stack levels used: 1
  1152 ;; Hardware stack levels required when called: 4
  1153 ;; This function calls:
  1154 ;;		_lcdCommand
  1155 ;;		_lcdData
  1156 ;;		_ledInicial
  1157 ;;		_printf
  1158 ;;		_tempo
  1159 ;; This function is called by:
  1160 ;;		_main
  1161 ;; This function uses a non-reentrant model
  1162 ;;
  1163                           
  1164                           	psect	text3
  1165  0026C6                     __ptext3:
  1166                           	callstack 0
  1167  0026C6                     _mensagemInicial:
  1168                           	callstack 26
  1169  0026C6                     
  1170                           ;posto.c: 49:     char i, msgInicial[24] = "Bem-vindos Posto da Ana";
  1171  0026C6  EE20  F080         	lfsr	2,mensagemInicial@F2392
  1172  0026CA  EE10  F011         	lfsr	1,mensagemInicial@msgInicial
  1173  0026CE  0E17               	movlw	23
  1174  0026D0                     u3331:
  1175  0026D0  CFDB FFE3          	movff	plusw2,plusw1
  1176  0026D4  06E8               	decf	wreg,f,c
  1177  0026D6  E2FC               	bc	u3331
  1178  0026D8                     
  1179                           ;posto.c: 51:     ledInicial();
  1180  0026D8  EC28  F012         	call	_ledInicial	;wreg free
  1181  0026DC                     
  1182                           ;posto.c: 53:     lcdCommand(0x8F);
  1183  0026DC  0E8F               	movlw	143
  1184  0026DE  EC78  F012         	call	_lcdCommand
  1185  0026E2                     
  1186                           ;posto.c: 54:     for (i = 0; i < 23; i++) {
  1187  0026E2  0E00               	movlw	0
  1188  0026E4  6E29               	movwf	mensagemInicial@i^0,c
  1189  0026E6                     l3097:
  1190                           
  1191                           ;posto.c: 55:         lcdData(msgInicial[i]);
  1192  0026E6  0E11               	movlw	low mensagemInicial@msgInicial
  1193  0026E8  2429               	addwf	mensagemInicial@i^0,w,c
  1194  0026EA  6ED9               	movwf	fsr2l,c
  1195  0026EC  6ADA               	clrf	fsr2h,c
  1196  0026EE  0E00               	movlw	high mensagemInicial@msgInicial
  1197  0026F0  22DA               	addwfc	fsr2h,f,c
  1198  0026F2  50DF               	movf	indf2,w,c
  1199  0026F4  EC7A  F014         	call	_lcdData
  1200  0026F8                     
  1201                           ;posto.c: 56:         lcdCommand(0x18);
  1202  0026F8  0E18               	movlw	24
  1203  0026FA  EC78  F012         	call	_lcdCommand
  1204  0026FE                     
  1205                           ;posto.c: 57:         tempo(250);
  1206  0026FE  0EFA               	movlw	250
  1207  002700  ECCA  F013         	call	_tempo
  1208  002704                     
  1209                           ;posto.c: 58:     }
  1210  002704  2A29               	incf	mensagemInicial@i^0,f,c
  1211  002706  0E16               	movlw	22
  1212  002708  6429               	cpfsgt	mensagemInicial@i^0,c
  1213  00270A  EF89  F013         	goto	u3341
  1214  00270E  EF8B  F013         	goto	u3340
  1215  002712                     u3341:
  1216  002712  EF73  F013         	goto	l3097
  1217  002716                     u3340:
  1218  002716                     
  1219                           ;posto.c: 59:     tempo(250);
  1220  002716  0EFA               	movlw	250
  1221  002718  ECCA  F013         	call	_tempo
  1222                           
  1223                           ;posto.c: 60:     lcdCommand(0x01);
  1224  00271C  0E01               	movlw	1
  1225  00271E  EC78  F012         	call	_lcdCommand
  1226  002722                     
  1227                           ;posto.c: 62:     printf(" 1 - Gasolina\n 2 - Etanol\n 3 - Diesel\n 4 - G Adtivada");
  1228  002722  0E4D               	movlw	low STR_1
  1229  002724  6E09               	movwf	printf@msg^0,c
  1230  002726  0E06               	movlw	high STR_1
  1231  002728  6E0A               	movwf	(printf@msg+1)^0,c
  1232  00272A  ECB5  F011         	call	_printf	;wreg free
  1233  00272E  0012               	return		;funcret
  1234  002730                     __end_of_mensagemInicial:
  1235                           	callstack 0
  1236                           
  1237 ;; *************** function _ledInicial *****************
  1238 ;; Defined at:
  1239 ;;		line 13 in file "posto.c"
  1240 ;; Parameters:    Size  Location     Type
  1241 ;;		None
  1242 ;; Auto vars:     Size  Location     Type
  1243 ;;		None
  1244 ;; Return value:  Size  Location     Type
  1245 ;;                  1    wreg      void 
  1246 ;; Registers used:
  1247 ;;		wreg, status,2, status,0, cstack
  1248 ;; Tracked objects:
  1249 ;;		On entry : 0/0
  1250 ;;		On exit  : 0/0
  1251 ;;		Unchanged: 0/0
  1252 ;; Data sizes:     COMRAM   BANK0   BANK1   BANK2   BANK3   BANK4   BANK5
  1253 ;;      Params:         0       0       0       0       0       0       0
  1254 ;;      Locals:         0       0       0       0       0       0       0
  1255 ;;      Temps:          0       0       0       0       0       0       0
  1256 ;;      Totals:         0       0       0       0       0       0       0
  1257 ;;Total ram usage:        0 bytes
  1258 ;; Hardware stack levels used: 1
  1259 ;; Hardware stack levels required when called: 1
  1260 ;; This function calls:
  1261 ;;		_tempo
  1262 ;; This function is called by:
  1263 ;;		_mensagemInicial
  1264 ;; This function uses a non-reentrant model
  1265 ;;
  1266                           
  1267                           	psect	text4
  1268  002450                     __ptext4:
  1269                           	callstack 0
  1270  002450                     _ledInicial:
  1271                           	callstack 28
  1272  002450                     
  1273                           ;posto.c: 14:     PORTD = 0x01;
  1274  002450  0E01               	movlw	1
  1275  002452  6E83               	movwf	131,c	;volatile
  1276  002454                     
  1277                           ;posto.c: 15:     tempo(250);
  1278  002454  0EFA               	movlw	250
  1279  002456  ECCA  F013         	call	_tempo
  1280  00245A                     
  1281                           ;posto.c: 16:     PORTD = 0x03;
  1282  00245A  0E03               	movlw	3
  1283  00245C  6E83               	movwf	131,c	;volatile
  1284                           
  1285                           ;posto.c: 17:     tempo(250);
  1286  00245E  0EFA               	movlw	250
  1287  002460  ECCA  F013         	call	_tempo
  1288  002464                     
  1289                           ;posto.c: 18:     PORTD = 0x07;
  1290  002464  0E07               	movlw	7
  1291  002466  6E83               	movwf	131,c	;volatile
  1292  002468                     
  1293                           ;posto.c: 19:     tempo(250);
  1294  002468  0EFA               	movlw	250
  1295  00246A  ECCA  F013         	call	_tempo
  1296                           
  1297                           ;posto.c: 20:     PORTD = 0x0F;
  1298  00246E  0E0F               	movlw	15
  1299  002470  6E83               	movwf	131,c	;volatile
  1300  002472                     
  1301                           ;posto.c: 21:     tempo(250);
  1302  002472  0EFA               	movlw	250
  1303  002474  ECCA  F013         	call	_tempo
  1304  002478                     
  1305                           ;posto.c: 22:     PORTD = 0x1F;
  1306  002478  0E1F               	movlw	31
  1307  00247A  6E83               	movwf	131,c	;volatile
  1308                           
  1309                           ;posto.c: 23:     tempo(250);
  1310  00247C  0EFA               	movlw	250
  1311  00247E  ECCA  F013         	call	_tempo
  1312  002482                     
  1313                           ;posto.c: 24:     PORTD = 0x3F;
  1314  002482  0E3F               	movlw	63
  1315  002484  6E83               	movwf	131,c	;volatile
  1316  002486                     
  1317                           ;posto.c: 25:     tempo(250);
  1318  002486  0EFA               	movlw	250
  1319  002488  ECCA  F013         	call	_tempo
  1320                           
  1321                           ;posto.c: 26:     PORTD = 0x7F;
  1322  00248C  0E7F               	movlw	127
  1323  00248E  6E83               	movwf	131,c	;volatile
  1324  002490                     
  1325                           ;posto.c: 27:     tempo(250);
  1326  002490  0EFA               	movlw	250
  1327  002492  ECCA  F013         	call	_tempo
  1328  002496                     
  1329                           ;posto.c: 28:     PORTD = 0xFF;
  1330  002496  6883               	setf	131,c	;volatile
  1331  002498                     
  1332                           ;posto.c: 29:     tempo(250);
  1333  002498  0EFA               	movlw	250
  1334  00249A  ECCA  F013         	call	_tempo
  1335                           
  1336                           ;posto.c: 30:     PORTD = 0x7F;
  1337  00249E  0E7F               	movlw	127
  1338  0024A0  6E83               	movwf	131,c	;volatile
  1339  0024A2                     
  1340                           ;posto.c: 31:     tempo(250);
  1341  0024A2  0EFA               	movlw	250
  1342  0024A4  ECCA  F013         	call	_tempo
  1343  0024A8                     
  1344                           ;posto.c: 32:     PORTD = 0x3F;
  1345  0024A8  0E3F               	movlw	63
  1346  0024AA  6E83               	movwf	131,c	;volatile
  1347                           
  1348                           ;posto.c: 33:     tempo(250);
  1349  0024AC  0EFA               	movlw	250
  1350  0024AE  ECCA  F013         	call	_tempo
  1351  0024B2                     
  1352                           ;posto.c: 34:     PORTD = 0x1F;
  1353  0024B2  0E1F               	movlw	31
  1354  0024B4  6E83               	movwf	131,c	;volatile
  1355  0024B6                     
  1356                           ;posto.c: 35:     tempo(250);
  1357  0024B6  0EFA               	movlw	250
  1358  0024B8  ECCA  F013         	call	_tempo
  1359                           
  1360                           ;posto.c: 36:     PORTD = 0x0F;
  1361  0024BC  0E0F               	movlw	15
  1362  0024BE  6E83               	movwf	131,c	;volatile
  1363  0024C0                     
  1364                           ;posto.c: 37:     tempo(250);
  1365  0024C0  0EFA               	movlw	250
  1366  0024C2  ECCA  F013         	call	_tempo
  1367  0024C6                     
  1368                           ;posto.c: 38:     PORTD = 0x07;
  1369  0024C6  0E07               	movlw	7
  1370  0024C8  6E83               	movwf	131,c	;volatile
  1371                           
  1372                           ;posto.c: 39:     tempo(250);
  1373  0024CA  0EFA               	movlw	250
  1374  0024CC  ECCA  F013         	call	_tempo
  1375  0024D0                     
  1376                           ;posto.c: 40:     PORTD = 0x03;
  1377  0024D0  0E03               	movlw	3
  1378  0024D2  6E83               	movwf	131,c	;volatile
  1379  0024D4                     
  1380                           ;posto.c: 41:     tempo(250);
  1381  0024D4  0EFA               	movlw	250
  1382  0024D6  ECCA  F013         	call	_tempo
  1383                           
  1384                           ;posto.c: 42:     PORTD = 0x01;
  1385  0024DA  0E01               	movlw	1
  1386  0024DC  6E83               	movwf	131,c	;volatile
  1387  0024DE                     
  1388                           ;posto.c: 43:     tempo(250);
  1389  0024DE  0EFA               	movlw	250
  1390  0024E0  ECCA  F013         	call	_tempo
  1391  0024E4                     
  1392                           ;posto.c: 44:     PORTD = 0x00;
  1393  0024E4  0E00               	movlw	0
  1394  0024E6  6E83               	movwf	131,c	;volatile
  1395                           
  1396                           ;posto.c: 45:     tempo(250);
  1397  0024E8  0EFA               	movlw	250
  1398  0024EA  ECCA  F013         	call	_tempo
  1399  0024EE  0012               	return		;funcret
  1400  0024F0                     __end_of_ledInicial:
  1401                           	callstack 0
  1402                           
  1403 ;; *************** function _lcdInit *****************
  1404 ;; Defined at:
  1405 ;;		line 95 in file "lcd.c"
  1406 ;; Parameters:    Size  Location     Type
  1407 ;;		None
  1408 ;; Auto vars:     Size  Location     Type
  1409 ;;		None
  1410 ;; Return value:  Size  Location     Type
  1411 ;;                  1    wreg      void 
  1412 ;; Registers used:
  1413 ;;		wreg, status,2, status,0, cstack
  1414 ;; Tracked objects:
  1415 ;;		On entry : 0/0
  1416 ;;		On exit  : 0/0
  1417 ;;		Unchanged: 0/0
  1418 ;; Data sizes:     COMRAM   BANK0   BANK1   BANK2   BANK3   BANK4   BANK5
  1419 ;;      Params:         0       0       0       0       0       0       0
  1420 ;;      Locals:         0       0       0       0       0       0       0
  1421 ;;      Temps:          0       0       0       0       0       0       0
  1422 ;;      Totals:         0       0       0       0       0       0       0
  1423 ;;Total ram usage:        0 bytes
  1424 ;; Hardware stack levels used: 1
  1425 ;; Hardware stack levels required when called: 3
  1426 ;; This function calls:
  1427 ;;		_Delay2ms
  1428 ;;		_lcdCommand
  1429 ;;		_pinMode
  1430 ;; This function is called by:
  1431 ;;		_main
  1432 ;; This function uses a non-reentrant model
  1433 ;;
  1434                           
  1435                           	psect	text5
  1436  00256E                     __ptext5:
  1437                           	callstack 0
  1438  00256E                     _lcdInit:
  1439                           	callstack 27
  1440  00256E                     
  1441                           ;lcd.c: 97:     pinMode(PIN_E2, 0);
  1442  00256E  0E00               	movlw	0
  1443  002570  6E02               	movwf	(pinMode@pin+1)^0,c
  1444  002572  0E22               	movlw	34
  1445  002574  6E01               	movwf	pinMode@pin^0,c
  1446  002576  0E00               	movlw	0
  1447  002578  6E04               	movwf	(pinMode@type+1)^0,c
  1448  00257A  0E00               	movlw	0
  1449  00257C  6E03               	movwf	pinMode@type^0,c
  1450  00257E  EC5D  F00B         	call	_pinMode	;wreg free
  1451                           
  1452                           ;lcd.c: 98:     pinMode(PIN_E1, 0);
  1453  002582  0E00               	movlw	0
  1454  002584  6E02               	movwf	(pinMode@pin+1)^0,c
  1455  002586  0E21               	movlw	33
  1456  002588  6E01               	movwf	pinMode@pin^0,c
  1457  00258A  0E00               	movlw	0
  1458  00258C  6E04               	movwf	(pinMode@type+1)^0,c
  1459  00258E  0E00               	movlw	0
  1460  002590  6E03               	movwf	pinMode@type^0,c
  1461  002592  EC5D  F00B         	call	_pinMode	;wreg free
  1462  002596                     
  1463                           ;lcd.c: 99:  TRISD = 0x00;
  1464  002596  0E00               	movlw	0
  1465  002598  6E95               	movwf	149,c	;volatile
  1466  00259A                     
  1467                           ;lcd.c: 102:  Delay2ms(); Delay2ms(); Delay2ms(); Delay2ms(); Delay2ms();
  1468  00259A  ECD3  F014         	call	_Delay2ms	;wreg free
  1469  00259E  ECD3  F014         	call	_Delay2ms	;wreg free
  1470  0025A2  ECD3  F014         	call	_Delay2ms	;wreg free
  1471  0025A6  ECD3  F014         	call	_Delay2ms	;wreg free
  1472  0025AA  ECD3  F014         	call	_Delay2ms	;wreg free
  1473  0025AE                     
  1474                           ;lcd.c: 104:     lcdCommand(0x38);
  1475  0025AE  0E38               	movlw	56
  1476  0025B0  EC78  F012         	call	_lcdCommand
  1477  0025B4                     
  1478                           ;lcd.c: 105:     Delay2ms(); Delay2ms();
  1479  0025B4  ECD3  F014         	call	_Delay2ms	;wreg free
  1480  0025B8  ECD3  F014         	call	_Delay2ms	;wreg free
  1481  0025BC                     
  1482                           ;lcd.c: 106:     lcdCommand(0x38);
  1483  0025BC  0E38               	movlw	56
  1484  0025BE  EC78  F012         	call	_lcdCommand
  1485  0025C2                     
  1486                           ;lcd.c: 107:     Delay2ms();
  1487  0025C2  ECD3  F014         	call	_Delay2ms	;wreg free
  1488  0025C6                     
  1489                           ;lcd.c: 108:     lcdCommand(0x38);
  1490  0025C6  0E38               	movlw	56
  1491  0025C8  EC78  F012         	call	_lcdCommand
  1492  0025CC                     
  1493                           ;lcd.c: 110:     lcdCommand(0x38);
  1494  0025CC  0E38               	movlw	56
  1495  0025CE  EC78  F012         	call	_lcdCommand
  1496  0025D2                     
  1497                           ;lcd.c: 111:     lcdCommand(0x06);
  1498  0025D2  0E06               	movlw	6
  1499  0025D4  EC78  F012         	call	_lcdCommand
  1500  0025D8                     
  1501                           ;lcd.c: 114:     lcdCommand(0x0C);
  1502  0025D8  0E0C               	movlw	12
  1503  0025DA  EC78  F012         	call	_lcdCommand
  1504  0025DE                     
  1505                           ;lcd.c: 115:     lcdCommand(0x01);
  1506  0025DE  0E01               	movlw	1
  1507  0025E0  EC78  F012         	call	_lcdCommand
  1508  0025E4  0012               	return		;funcret
  1509  0025E6                     __end_of_lcdInit:
  1510                           	callstack 0
  1511                           
  1512 ;; *************** function _pinMode *****************
  1513 ;; Defined at:
  1514 ;;		line 54 in file "io.c"
  1515 ;; Parameters:    Size  Location     Type
  1516 ;;  pin             2    0[COMRAM] int 
  1517 ;;  type            2    2[COMRAM] int 
  1518 ;; Auto vars:     Size  Location     Type
  1519 ;;		None
  1520 ;; Return value:  Size  Location     Type
  1521 ;;                  1    wreg      void 
  1522 ;; Registers used:
  1523 ;;		wreg, status,2, status,0
  1524 ;; Tracked objects:
  1525 ;;		On entry : 0/0
  1526 ;;		On exit  : 0/0
  1527 ;;		Unchanged: 0/0
  1528 ;; Data sizes:     COMRAM   BANK0   BANK1   BANK2   BANK3   BANK4   BANK5
  1529 ;;      Params:         4       0       0       0       0       0       0
  1530 ;;      Locals:         0       0       0       0       0       0       0
  1531 ;;      Temps:          2       0       0       0       0       0       0
  1532 ;;      Totals:         6       0       0       0       0       0       0
  1533 ;;Total ram usage:        6 bytes
  1534 ;; Hardware stack levels used: 1
  1535 ;; This function calls:
  1536 ;;		Nothing
  1537 ;; This function is called by:
  1538 ;;		_lcdInit
  1539 ;;		_ssdInit
  1540 ;; This function uses a non-reentrant model
  1541 ;;
  1542                           
  1543                           	psect	text6
  1544  0016BA                     __ptext6:
  1545                           	callstack 0
  1546  0016BA                     _pinMode:
  1547                           	callstack 29
  1548  0016BA                     
  1549                           ;io.c: 56:     if(pin <8){
  1550  0016BA  BE02               	btfsc	(pinMode@pin+1)^0,7,c
  1551  0016BC  EF6B  F00B         	goto	u2230
  1552  0016C0  5002               	movf	(pinMode@pin+1)^0,w,c
  1553  0016C2  E107               	bnz	u2231
  1554  0016C4  0E08               	movlw	8
  1555  0016C6  5C01               	subwf	pinMode@pin^0,w,c
  1556  0016C8  B0D8               	btfsc	status,0,c
  1557  0016CA  EF69  F00B         	goto	u2231
  1558  0016CE  EF6B  F00B         	goto	u2230
  1559  0016D2                     u2231:
  1560  0016D2  EF95  F00B         	goto	l2453
  1561  0016D6                     u2230:
  1562  0016D6                     
  1563                           ;io.c: 57:         if (type){ ((TRISA) |= (1<<(pin)));}
  1564  0016D6  5003               	movf	pinMode@type^0,w,c
  1565  0016D8  1004               	iorwf	(pinMode@type+1)^0,w,c
  1566  0016DA  B4D8               	btfsc	status,2,c
  1567  0016DC  EF72  F00B         	goto	u2241
  1568  0016E0  EF74  F00B         	goto	u2240
  1569  0016E4                     u2241:
  1570  0016E4  EF84  F00B         	goto	l2451
  1571  0016E8                     u2240:
  1572  0016E8  C001  F005         	movff	pinMode@pin,??_pinMode
  1573  0016EC  0E01               	movlw	1
  1574  0016EE  6E06               	movwf	(??_pinMode+1)^0,c
  1575  0016F0  2A05               	incf	??_pinMode^0,f,c
  1576  0016F2  EF7D  F00B         	goto	u2254
  1577  0016F6                     u2255:
  1578  0016F6  90D8               	bcf	status,0,c
  1579  0016F8  3606               	rlcf	(??_pinMode+1)^0,f,c
  1580  0016FA                     u2254:
  1581  0016FA  2E05               	decfsz	??_pinMode^0,f,c
  1582  0016FC  EF7B  F00B         	goto	u2255
  1583  001700  5006               	movf	(??_pinMode+1)^0,w,c
  1584  001702  1292               	iorwf	146,f,c	;volatile
  1585  001704  EF83  F00C         	goto	l111
  1586  001708                     l2451:
  1587  001708  C001  F005         	movff	pinMode@pin,??_pinMode
  1588  00170C  0E01               	movlw	1
  1589  00170E  6E06               	movwf	(??_pinMode+1)^0,c
  1590  001710  2A05               	incf	??_pinMode^0,f,c
  1591  001712  EF8D  F00B         	goto	u2264
  1592  001716                     u2265:
  1593  001716  90D8               	bcf	status,0,c
  1594  001718  3606               	rlcf	(??_pinMode+1)^0,f,c
  1595  00171A                     u2264:
  1596  00171A  2E05               	decfsz	??_pinMode^0,f,c
  1597  00171C  EF8B  F00B         	goto	u2265
  1598  001720  5006               	movf	(??_pinMode+1)^0,w,c
  1599  001722  0AFF               	xorlw	255
  1600  001724  1692               	andwf	146,f,c	;volatile
  1601  001726  EF83  F00C         	goto	l111
  1602  00172A                     l2453:
  1603  00172A  BE02               	btfsc	(pinMode@pin+1)^0,7,c
  1604  00172C  EFA3  F00B         	goto	u2270
  1605  001730  5002               	movf	(pinMode@pin+1)^0,w,c
  1606  001732  E107               	bnz	u2271
  1607  001734  0E10               	movlw	16
  1608  001736  5C01               	subwf	pinMode@pin^0,w,c
  1609  001738  B0D8               	btfsc	status,0,c
  1610  00173A  EFA1  F00B         	goto	u2271
  1611  00173E  EFA3  F00B         	goto	u2270
  1612  001742                     u2271:
  1613  001742  EFD1  F00B         	goto	l2461
  1614  001746                     u2270:
  1615  001746                     
  1616                           ;io.c: 60:         if (type){ ((TRISB) |= (1<<(pin-8)));}
  1617  001746  5003               	movf	pinMode@type^0,w,c
  1618  001748  1004               	iorwf	(pinMode@type+1)^0,w,c
  1619  00174A  B4D8               	btfsc	status,2,c
  1620  00174C  EFAA  F00B         	goto	u2281
  1621  001750  EFAC  F00B         	goto	u2280
  1622  001754                     u2281:
  1623  001754  EFBE  F00B         	goto	l2459
  1624  001758                     u2280:
  1625  001758  C001  F005         	movff	pinMode@pin,??_pinMode
  1626  00175C  0EF8               	movlw	-8
  1627  00175E  2605               	addwf	??_pinMode^0,f,c
  1628  001760  0E01               	movlw	1
  1629  001762  6E06               	movwf	(??_pinMode+1)^0,c
  1630  001764  2A05               	incf	??_pinMode^0,f,c
  1631  001766  EFB7  F00B         	goto	u2294
  1632  00176A                     u2295:
  1633  00176A  90D8               	bcf	status,0,c
  1634  00176C  3606               	rlcf	(??_pinMode+1)^0,f,c
  1635  00176E                     u2294:
  1636  00176E  2E05               	decfsz	??_pinMode^0,f,c
  1637  001770  EFB5  F00B         	goto	u2295
  1638  001774  5006               	movf	(??_pinMode+1)^0,w,c
  1639  001776  1293               	iorwf	147,f,c	;volatile
  1640  001778  EF83  F00C         	goto	l111
  1641  00177C                     l2459:
  1642  00177C  C001  F005         	movff	pinMode@pin,??_pinMode
  1643  001780  0EF8               	movlw	-8
  1644  001782  2605               	addwf	??_pinMode^0,f,c
  1645  001784  0E01               	movlw	1
  1646  001786  6E06               	movwf	(??_pinMode+1)^0,c
  1647  001788  2A05               	incf	??_pinMode^0,f,c
  1648  00178A  EFC9  F00B         	goto	u2304
  1649  00178E                     u2305:
  1650  00178E  90D8               	bcf	status,0,c
  1651  001790  3606               	rlcf	(??_pinMode+1)^0,f,c
  1652  001792                     u2304:
  1653  001792  2E05               	decfsz	??_pinMode^0,f,c
  1654  001794  EFC7  F00B         	goto	u2305
  1655  001798  5006               	movf	(??_pinMode+1)^0,w,c
  1656  00179A  0AFF               	xorlw	255
  1657  00179C  1693               	andwf	147,f,c	;volatile
  1658  00179E  EF83  F00C         	goto	l111
  1659  0017A2                     l2461:
  1660  0017A2  BE02               	btfsc	(pinMode@pin+1)^0,7,c
  1661  0017A4  EFDF  F00B         	goto	u2310
  1662  0017A8  5002               	movf	(pinMode@pin+1)^0,w,c
  1663  0017AA  E107               	bnz	u2311
  1664  0017AC  0E18               	movlw	24
  1665  0017AE  5C01               	subwf	pinMode@pin^0,w,c
  1666  0017B0  B0D8               	btfsc	status,0,c
  1667  0017B2  EFDD  F00B         	goto	u2311
  1668  0017B6  EFDF  F00B         	goto	u2310
  1669  0017BA                     u2311:
  1670  0017BA  EF0D  F00C         	goto	l2469
  1671  0017BE                     u2310:
  1672  0017BE                     
  1673                           ;io.c: 63:         if (type){ ((TRISC) |= (1<<(pin-16)));}
  1674  0017BE  5003               	movf	pinMode@type^0,w,c
  1675  0017C0  1004               	iorwf	(pinMode@type+1)^0,w,c
  1676  0017C2  B4D8               	btfsc	status,2,c
  1677  0017C4  EFE6  F00B         	goto	u2321
  1678  0017C8  EFE8  F00B         	goto	u2320
  1679  0017CC                     u2321:
  1680  0017CC  EFFA  F00B         	goto	l2467
  1681  0017D0                     u2320:
  1682  0017D0  C001  F005         	movff	pinMode@pin,??_pinMode
  1683  0017D4  0EF0               	movlw	-16
  1684  0017D6  2605               	addwf	??_pinMode^0,f,c
  1685  0017D8  0E01               	movlw	1
  1686  0017DA  6E06               	movwf	(??_pinMode+1)^0,c
  1687  0017DC  2A05               	incf	??_pinMode^0,f,c
  1688  0017DE  EFF3  F00B         	goto	u2334
  1689  0017E2                     u2335:
  1690  0017E2  90D8               	bcf	status,0,c
  1691  0017E4  3606               	rlcf	(??_pinMode+1)^0,f,c
  1692  0017E6                     u2334:
  1693  0017E6  2E05               	decfsz	??_pinMode^0,f,c
  1694  0017E8  EFF1  F00B         	goto	u2335
  1695  0017EC  5006               	movf	(??_pinMode+1)^0,w,c
  1696  0017EE  1294               	iorwf	148,f,c	;volatile
  1697  0017F0  EF83  F00C         	goto	l111
  1698  0017F4                     l2467:
  1699  0017F4  C001  F005         	movff	pinMode@pin,??_pinMode
  1700  0017F8  0EF0               	movlw	-16
  1701  0017FA  2605               	addwf	??_pinMode^0,f,c
  1702  0017FC  0E01               	movlw	1
  1703  0017FE  6E06               	movwf	(??_pinMode+1)^0,c
  1704  001800  2A05               	incf	??_pinMode^0,f,c
  1705  001802  EF05  F00C         	goto	u2344
  1706  001806                     u2345:
  1707  001806  90D8               	bcf	status,0,c
  1708  001808  3606               	rlcf	(??_pinMode+1)^0,f,c
  1709  00180A                     u2344:
  1710  00180A  2E05               	decfsz	??_pinMode^0,f,c
  1711  00180C  EF03  F00C         	goto	u2345
  1712  001810  5006               	movf	(??_pinMode+1)^0,w,c
  1713  001812  0AFF               	xorlw	255
  1714  001814  1694               	andwf	148,f,c	;volatile
  1715  001816  EF83  F00C         	goto	l111
  1716  00181A                     l2469:
  1717  00181A  BE02               	btfsc	(pinMode@pin+1)^0,7,c
  1718  00181C  EF1B  F00C         	goto	u2350
  1719  001820  5002               	movf	(pinMode@pin+1)^0,w,c
  1720  001822  E107               	bnz	u2351
  1721  001824  0E20               	movlw	32
  1722  001826  5C01               	subwf	pinMode@pin^0,w,c
  1723  001828  B0D8               	btfsc	status,0,c
  1724  00182A  EF19  F00C         	goto	u2351
  1725  00182E  EF1B  F00C         	goto	u2350
  1726  001832                     u2351:
  1727  001832  EF49  F00C         	goto	l2477
  1728  001836                     u2350:
  1729  001836                     
  1730                           ;io.c: 66:         if (type){ ((TRISD) |= (1<<(pin-24)));}
  1731  001836  5003               	movf	pinMode@type^0,w,c
  1732  001838  1004               	iorwf	(pinMode@type+1)^0,w,c
  1733  00183A  B4D8               	btfsc	status,2,c
  1734  00183C  EF22  F00C         	goto	u2361
  1735  001840  EF24  F00C         	goto	u2360
  1736  001844                     u2361:
  1737  001844  EF36  F00C         	goto	l2475
  1738  001848                     u2360:
  1739  001848  C001  F005         	movff	pinMode@pin,??_pinMode
  1740  00184C  0EE8               	movlw	-24
  1741  00184E  2605               	addwf	??_pinMode^0,f,c
  1742  001850  0E01               	movlw	1
  1743  001852  6E06               	movwf	(??_pinMode+1)^0,c
  1744  001854  2A05               	incf	??_pinMode^0,f,c
  1745  001856  EF2F  F00C         	goto	u2374
  1746  00185A                     u2375:
  1747  00185A  90D8               	bcf	status,0,c
  1748  00185C  3606               	rlcf	(??_pinMode+1)^0,f,c
  1749  00185E                     u2374:
  1750  00185E  2E05               	decfsz	??_pinMode^0,f,c
  1751  001860  EF2D  F00C         	goto	u2375
  1752  001864  5006               	movf	(??_pinMode+1)^0,w,c
  1753  001866  1295               	iorwf	149,f,c	;volatile
  1754  001868  EF83  F00C         	goto	l111
  1755  00186C                     l2475:
  1756  00186C  C001  F005         	movff	pinMode@pin,??_pinMode
  1757  001870  0EE8               	movlw	-24
  1758  001872  2605               	addwf	??_pinMode^0,f,c
  1759  001874  0E01               	movlw	1
  1760  001876  6E06               	movwf	(??_pinMode+1)^0,c
  1761  001878  2A05               	incf	??_pinMode^0,f,c
  1762  00187A  EF41  F00C         	goto	u2384
  1763  00187E                     u2385:
  1764  00187E  90D8               	bcf	status,0,c
  1765  001880  3606               	rlcf	(??_pinMode+1)^0,f,c
  1766  001882                     u2384:
  1767  001882  2E05               	decfsz	??_pinMode^0,f,c
  1768  001884  EF3F  F00C         	goto	u2385
  1769  001888  5006               	movf	(??_pinMode+1)^0,w,c
  1770  00188A  0AFF               	xorlw	255
  1771  00188C  1695               	andwf	149,f,c	;volatile
  1772  00188E  EF83  F00C         	goto	l111
  1773  001892                     l2477:
  1774  001892  BE02               	btfsc	(pinMode@pin+1)^0,7,c
  1775  001894  EF57  F00C         	goto	u2390
  1776  001898  5002               	movf	(pinMode@pin+1)^0,w,c
  1777  00189A  E107               	bnz	u2391
  1778  00189C  0E28               	movlw	40
  1779  00189E  5C01               	subwf	pinMode@pin^0,w,c
  1780  0018A0  B0D8               	btfsc	status,0,c
  1781  0018A2  EF55  F00C         	goto	u2391
  1782  0018A6  EF57  F00C         	goto	u2390
  1783  0018AA                     u2391:
  1784  0018AA  EF83  F00C         	goto	l111
  1785  0018AE                     u2390:
  1786  0018AE                     
  1787                           ;io.c: 69:         if (type){ ((TRISE) |= (1<<(pin-32)));}
  1788  0018AE  5003               	movf	pinMode@type^0,w,c
  1789  0018B0  1004               	iorwf	(pinMode@type+1)^0,w,c
  1790  0018B2  B4D8               	btfsc	status,2,c
  1791  0018B4  EF5E  F00C         	goto	u2401
  1792  0018B8  EF60  F00C         	goto	u2400
  1793  0018BC                     u2401:
  1794  0018BC  EF72  F00C         	goto	l2483
  1795  0018C0                     u2400:
  1796  0018C0  C001  F005         	movff	pinMode@pin,??_pinMode
  1797  0018C4  0EE0               	movlw	-32
  1798  0018C6  2605               	addwf	??_pinMode^0,f,c
  1799  0018C8  0E01               	movlw	1
  1800  0018CA  6E06               	movwf	(??_pinMode+1)^0,c
  1801  0018CC  2A05               	incf	??_pinMode^0,f,c
  1802  0018CE  EF6B  F00C         	goto	u2414
  1803  0018D2                     u2415:
  1804  0018D2  90D8               	bcf	status,0,c
  1805  0018D4  3606               	rlcf	(??_pinMode+1)^0,f,c
  1806  0018D6                     u2414:
  1807  0018D6  2E05               	decfsz	??_pinMode^0,f,c
  1808  0018D8  EF69  F00C         	goto	u2415
  1809  0018DC  5006               	movf	(??_pinMode+1)^0,w,c
  1810  0018DE  1296               	iorwf	150,f,c	;volatile
  1811  0018E0  EF83  F00C         	goto	l111
  1812  0018E4                     l2483:
  1813  0018E4  C001  F005         	movff	pinMode@pin,??_pinMode
  1814  0018E8  0EE0               	movlw	-32
  1815  0018EA  2605               	addwf	??_pinMode^0,f,c
  1816  0018EC  0E01               	movlw	1
  1817  0018EE  6E06               	movwf	(??_pinMode+1)^0,c
  1818  0018F0  2A05               	incf	??_pinMode^0,f,c
  1819  0018F2  EF7D  F00C         	goto	u2424
  1820  0018F6                     u2425:
  1821  0018F6  90D8               	bcf	status,0,c
  1822  0018F8  3606               	rlcf	(??_pinMode+1)^0,f,c
  1823  0018FA                     u2424:
  1824  0018FA  2E05               	decfsz	??_pinMode^0,f,c
  1825  0018FC  EF7B  F00C         	goto	u2425
  1826  001900  5006               	movf	(??_pinMode+1)^0,w,c
  1827  001902  0AFF               	xorlw	255
  1828  001904  1696               	andwf	150,f,c	;volatile
  1829  001906                     l111:
  1830  001906  0012               	return		;funcret
  1831  001908                     __end_of_pinMode:
  1832                           	callstack 0
  1833                           
  1834 ;; *************** function _kpInit *****************
  1835 ;; Defined at:
  1836 ;;		line 87 in file "keypad.c"
  1837 ;; Parameters:    Size  Location     Type
  1838 ;;		None
  1839 ;; Auto vars:     Size  Location     Type
  1840 ;;		None
  1841 ;; Return value:  Size  Location     Type
  1842 ;;                  1    wreg      void 
  1843 ;; Registers used:
  1844 ;;		wreg, status,2, status,0
  1845 ;; Tracked objects:
  1846 ;;		On entry : 0/0
  1847 ;;		On exit  : 0/0
  1848 ;;		Unchanged: 0/0
  1849 ;; Data sizes:     COMRAM   BANK0   BANK1   BANK2   BANK3   BANK4   BANK5
  1850 ;;      Params:         0       0       0       0       0       0       0
  1851 ;;      Locals:         0       0       0       0       0       0       0
  1852 ;;      Temps:          0       0       0       0       0       0       0
  1853 ;;      Totals:         0       0       0       0       0       0       0
  1854 ;;Total ram usage:        0 bytes
  1855 ;; Hardware stack levels used: 1
  1856 ;; This function calls:
  1857 ;;		Nothing
  1858 ;; This function is called by:
  1859 ;;		_main
  1860 ;; This function uses a non-reentrant model
  1861 ;;
  1862                           
  1863                           	psect	text7
  1864  002A1C                     __ptext7:
  1865                           	callstack 0
  1866  002A1C                     _kpInit:
  1867                           	callstack 30
  1868  002A1C                     
  1869                           ;keypad.c: 89:     TRISB &= 0x07;
  1870  002A1C  0E07               	movlw	7
  1871  002A1E  1693               	andwf	147,f,c	;volatile
  1872                           
  1873                           ;keypad.c: 91:     TRISD |= 0x0f;
  1874  002A20  0E0F               	movlw	15
  1875  002A22  1295               	iorwf	149,f,c	;volatile
  1876  002A24  0012               	return		;funcret
  1877  002A26                     __end_of_kpInit:
  1878                           	callstack 0
  1879                           
  1880 ;; *************** function _abastece *****************
  1881 ;; Defined at:
  1882 ;;		line 65 in file "posto.c"
  1883 ;; Parameters:    Size  Location     Type
  1884 ;;  valor           4   49[COMRAM] void 
  1885 ;;  indice          2   53[COMRAM] int 
  1886 ;; Auto vars:     Size  Location     Type
  1887 ;;  total           7   58[COMRAM] unsigned char [7]
  1888 ;;  i               4   67[COMRAM] float 
  1889 ;;  preco           2   72[COMRAM] unsigned int 
  1890 ;;  litroTotal      2   65[COMRAM] unsigned int 
  1891 ;;  j               1   71[COMRAM] unsigned char 
  1892 ;; Return value:  Size  Location     Type
  1893 ;;                  1    wreg      void 
  1894 ;; Registers used:
  1895 ;;		wreg, fsr1l, fsr1h, fsr2l, fsr2h, status,2, status,0, tblptrl, tblptrh, tblptru, prodl, prodh, cstack
  1896 ;; Tracked objects:
  1897 ;;		On entry : 0/0
  1898 ;;		On exit  : 0/0
  1899 ;;		Unchanged: 0/0
  1900 ;; Data sizes:     COMRAM   BANK0   BANK1   BANK2   BANK3   BANK4   BANK5
  1901 ;;      Params:         6       0       0       0       0       0       0
  1902 ;;      Locals:        16       0       0       0       0       0       0
  1903 ;;      Temps:          3       0       0       0       0       0       0
  1904 ;;      Totals:        25       0       0       0       0       0       0
  1905 ;;Total ram usage:       25 bytes
  1906 ;; Hardware stack levels used: 1
  1907 ;; Hardware stack levels required when called: 5
  1908 ;; This function calls:
  1909 ;;		___fladd
  1910 ;;		___flge
  1911 ;;		___flmul
  1912 ;;		___fltol
  1913 ;;		___lwdiv
  1914 ;;		___lwmod
  1915 ;;		___wmul
  1916 ;;		___xxtofl
  1917 ;;		_kpDebounce
  1918 ;;		_kpRead
  1919 ;;		_lcdCommand
  1920 ;;		_lcdData
  1921 ;;		_posAbastece
  1922 ;;		_pwmSet1
  1923 ;;		_ssdDigit
  1924 ;;		_ssdUpdate
  1925 ;; This function is called by:
  1926 ;;		_main
  1927 ;; This function uses a non-reentrant model
  1928 ;;
  1929                           
  1930                           	psect	text8
  1931  000B44                     __ptext8:
  1932                           	callstack 0
  1933  000B44                     _abastece:
  1934                           	callstack 25
  1935  000B44                     
  1936                           ;posto.c: 66:     float i;;posto.c: 67:     unsigned int preco = 0, litroTotal;
  1937  000B44  0E00               	movlw	0
  1938  000B46  6E4A               	movwf	(abastece@preco+1)^0,c
  1939  000B48  0E00               	movlw	0
  1940  000B4A  6E49               	movwf	abastece@preco^0,c
  1941  000B4C                     
  1942                           ;posto.c: 68:     char j, total[7] = "total:";
  1943  000B4C  EE20  F060         	lfsr	2,abastece@F2401
  1944  000B50  EE10  F03B         	lfsr	1,abastece@total
  1945  000B54  0E06               	movlw	6
  1946  000B56                     u3351:
  1947  000B56  CFDB FFE3          	movff	plusw2,plusw1
  1948  000B5A  06E8               	decf	wreg,f,c
  1949  000B5C  E2FC               	bc	u3351
  1950  000B5E                     
  1951                           ;posto.c: 70:     lcdCommand(0x01);
  1952  000B5E  0E01               	movlw	1
  1953  000B60  EC78  F012         	call	_lcdCommand
  1954  000B64                     
  1955                           ;posto.c: 71:     lcdCommand(0x80);
  1956  000B64  0E80               	movlw	128
  1957  000B66  EC78  F012         	call	_lcdCommand
  1958  000B6A                     
  1959                           ;posto.c: 72:     for (j = 0; j < 6; j++) {
  1960  000B6A  0E00               	movlw	0
  1961  000B6C  6E48               	movwf	abastece@j^0,c
  1962  000B6E                     l3129:
  1963                           
  1964                           ;posto.c: 73:         lcdData(total[j]);
  1965  000B6E  0E3B               	movlw	low abastece@total
  1966  000B70  2448               	addwf	abastece@j^0,w,c
  1967  000B72  6ED9               	movwf	fsr2l,c
  1968  000B74  6ADA               	clrf	fsr2h,c
  1969  000B76  0E00               	movlw	high abastece@total
  1970  000B78  22DA               	addwfc	fsr2h,f,c
  1971  000B7A  50DF               	movf	indf2,w,c
  1972  000B7C  EC7A  F014         	call	_lcdData
  1973  000B80                     
  1974                           ;posto.c: 74:     }
  1975  000B80  2A48               	incf	abastece@j^0,f,c
  1976  000B82  0E05               	movlw	5
  1977  000B84  6448               	cpfsgt	abastece@j^0,c
  1978  000B86  EFC7  F005         	goto	u3361
  1979  000B8A  EFC9  F005         	goto	u3360
  1980  000B8E                     u3361:
  1981  000B8E  EFB7  F005         	goto	l3129
  1982  000B92                     u3360:
  1983  000B92                     
  1984                           ;posto.c: 76:     pwmSet1(32);
  1985  000B92  0E20               	movlw	32
  1986  000B94  EC2D  F013         	call	_pwmSet1
  1987                           
  1988                           ;posto.c: 78:     while (((kpRead()) & (1<<(indice)))) {
  1989  000B98  EF49  F007         	goto	l3181
  1990  000B9C                     l3137:
  1991                           
  1992                           ;posto.c: 79:         preco = (unsigned int) (litro * valor);
  1993  000B9C  C032  F013         	movff	abastece@valor,___flmul@a
  1994  000BA0  C033  F014         	movff	abastece@valor+1,___flmul@a+1
  1995  000BA4  C034  F015         	movff	abastece@valor+2,___flmul@a+2
  1996  000BA8  C035  F016         	movff	abastece@valor+3,___flmul@a+3
  1997  000BAC  C067  F001         	movff	_litro,___xxtofl@val
  1998  000BB0  C068  F002         	movff	_litro+1,___xxtofl@val+1
  1999  000BB4  6A03               	clrf	(___xxtofl@val+2)^0,c
  2000  000BB6  6A04               	clrf	(___xxtofl@val+3)^0,c
  2001  000BB8  0E00               	movlw	0
  2002  000BBA  ECAB  F00D         	call	___xxtofl
  2003  000BBE  C001  F00F         	movff	?___xxtofl,___flmul@b
  2004  000BC2  C002  F010         	movff	?___xxtofl+1,___flmul@b+1
  2005  000BC6  C003  F011         	movff	?___xxtofl+2,___flmul@b+2
  2006  000BCA  C004  F012         	movff	?___xxtofl+3,___flmul@b+3
  2007  000BCE  ECE1  F007         	call	___flmul	;wreg free
  2008  000BD2  C00F  F028         	movff	?___flmul,___fltol@f1
  2009  000BD6  C010  F029         	movff	?___flmul+1,___fltol@f1+1
  2010  000BDA  C011  F02A         	movff	?___flmul+2,___fltol@f1+2
  2011  000BDE  C012  F02B         	movff	?___flmul+3,___fltol@f1+3
  2012  000BE2  ECB0  F010         	call	___fltol	;wreg free
  2013  000BE6  C028  F049         	movff	?___fltol,abastece@preco
  2014  000BEA  C029  F04A         	movff	?___fltol+1,abastece@preco+1
  2015  000BEE                     
  2016                           ;posto.c: 81:         lcdCommand(0xC0);
  2017  000BEE  0EC0               	movlw	192
  2018  000BF0  EC78  F012         	call	_lcdCommand
  2019  000BF4                     
  2020                           ;posto.c: 82:         lcdData('R');
  2021  000BF4  0E52               	movlw	82
  2022  000BF6  EC7A  F014         	call	_lcdData
  2023  000BFA                     
  2024                           ;posto.c: 83:         lcdData('$');
  2025  000BFA  0E24               	movlw	36
  2026  000BFC  EC7A  F014         	call	_lcdData
  2027  000C00                     
  2028                           ;posto.c: 84:         lcdData(((preco / 10000) % 10) + 48);
  2029  000C00  0E27               	movlw	39
  2030  000C02  6E04               	movwf	(___lwdiv@divisor+1)^0,c
  2031  000C04  0E10               	movlw	16
  2032  000C06  6E03               	movwf	___lwdiv@divisor^0,c
  2033  000C08  C049  F001         	movff	abastece@preco,___lwdiv@dividend
  2034  000C0C  C04A  F002         	movff	abastece@preco+1,___lwdiv@dividend+1
  2035  000C10  ECF3  F012         	call	___lwdiv	;wreg free
  2036  000C14  C001  F008         	movff	?___lwdiv,___lwmod@dividend
  2037  000C18  C002  F009         	movff	?___lwdiv+1,___lwmod@dividend+1
  2038  000C1C  0E00               	movlw	0
  2039  000C1E  6E0B               	movwf	(___lwmod@divisor+1)^0,c
  2040  000C20  0E0A               	movlw	10
  2041  000C22  6E0A               	movwf	___lwmod@divisor^0,c
  2042  000C24  EC98  F013         	call	___lwmod	;wreg free
  2043  000C28  5008               	movf	?___lwmod^0,w,c
  2044  000C2A  0F30               	addlw	48
  2045  000C2C  EC7A  F014         	call	_lcdData
  2046  000C30                     
  2047                           ;posto.c: 85:         lcdData(((preco / 1000) % 10) + 48);
  2048  000C30  0E03               	movlw	3
  2049  000C32  6E04               	movwf	(___lwdiv@divisor+1)^0,c
  2050  000C34  0EE8               	movlw	232
  2051  000C36  6E03               	movwf	___lwdiv@divisor^0,c
  2052  000C38  C049  F001         	movff	abastece@preco,___lwdiv@dividend
  2053  000C3C  C04A  F002         	movff	abastece@preco+1,___lwdiv@dividend+1
  2054  000C40  ECF3  F012         	call	___lwdiv	;wreg free
  2055  000C44  C001  F008         	movff	?___lwdiv,___lwmod@dividend
  2056  000C48  C002  F009         	movff	?___lwdiv+1,___lwmod@dividend+1
  2057  000C4C  0E00               	movlw	0
  2058  000C4E  6E0B               	movwf	(___lwmod@divisor+1)^0,c
  2059  000C50  0E0A               	movlw	10
  2060  000C52  6E0A               	movwf	___lwmod@divisor^0,c
  2061  000C54  EC98  F013         	call	___lwmod	;wreg free
  2062  000C58  5008               	movf	?___lwmod^0,w,c
  2063  000C5A  0F30               	addlw	48
  2064  000C5C  EC7A  F014         	call	_lcdData
  2065  000C60                     
  2066                           ;posto.c: 86:         lcdData(((preco / 100) % 10) + 48);
  2067  000C60  0E00               	movlw	0
  2068  000C62  6E04               	movwf	(___lwdiv@divisor+1)^0,c
  2069  000C64  0E64               	movlw	100
  2070  000C66  6E03               	movwf	___lwdiv@divisor^0,c
  2071  000C68  C049  F001         	movff	abastece@preco,___lwdiv@dividend
  2072  000C6C  C04A  F002         	movff	abastece@preco+1,___lwdiv@dividend+1
  2073  000C70  ECF3  F012         	call	___lwdiv	;wreg free
  2074  000C74  C001  F008         	movff	?___lwdiv,___lwmod@dividend
  2075  000C78  C002  F009         	movff	?___lwdiv+1,___lwmod@dividend+1
  2076  000C7C  0E00               	movlw	0
  2077  000C7E  6E0B               	movwf	(___lwmod@divisor+1)^0,c
  2078  000C80  0E0A               	movlw	10
  2079  000C82  6E0A               	movwf	___lwmod@divisor^0,c
  2080  000C84  EC98  F013         	call	___lwmod	;wreg free
  2081  000C88  5008               	movf	?___lwmod^0,w,c
  2082  000C8A  0F30               	addlw	48
  2083  000C8C  EC7A  F014         	call	_lcdData
  2084  000C90                     
  2085                           ;posto.c: 87:         lcdData(((preco / 10) % 10) + 48);
  2086  000C90  0E00               	movlw	0
  2087  000C92  6E04               	movwf	(___lwdiv@divisor+1)^0,c
  2088  000C94  0E0A               	movlw	10
  2089  000C96  6E03               	movwf	___lwdiv@divisor^0,c
  2090  000C98  C049  F001         	movff	abastece@preco,___lwdiv@dividend
  2091  000C9C  C04A  F002         	movff	abastece@preco+1,___lwdiv@dividend+1
  2092  000CA0  ECF3  F012         	call	___lwdiv	;wreg free
  2093  000CA4  C001  F008         	movff	?___lwdiv,___lwmod@dividend
  2094  000CA8  C002  F009         	movff	?___lwdiv+1,___lwmod@dividend+1
  2095  000CAC  0E00               	movlw	0
  2096  000CAE  6E0B               	movwf	(___lwmod@divisor+1)^0,c
  2097  000CB0  0E0A               	movlw	10
  2098  000CB2  6E0A               	movwf	___lwmod@divisor^0,c
  2099  000CB4  EC98  F013         	call	___lwmod	;wreg free
  2100  000CB8  5008               	movf	?___lwmod^0,w,c
  2101  000CBA  0F30               	addlw	48
  2102  000CBC  EC7A  F014         	call	_lcdData
  2103  000CC0                     
  2104                           ;posto.c: 88:         lcdData(',');
  2105  000CC0  0E2C               	movlw	44
  2106  000CC2  EC7A  F014         	call	_lcdData
  2107  000CC6                     
  2108                           ;posto.c: 89:         lcdData(((preco / 1) % 10) + 48);
  2109  000CC6  C049  F008         	movff	abastece@preco,___lwmod@dividend
  2110  000CCA  C04A  F009         	movff	abastece@preco+1,___lwmod@dividend+1
  2111  000CCE  0E00               	movlw	0
  2112  000CD0  6E0B               	movwf	(___lwmod@divisor+1)^0,c
  2113  000CD2  0E0A               	movlw	10
  2114  000CD4  6E0A               	movwf	___lwmod@divisor^0,c
  2115  000CD6  EC98  F013         	call	___lwmod	;wreg free
  2116  000CDA  5008               	movf	?___lwmod^0,w,c
  2117  000CDC  0F30               	addlw	48
  2118  000CDE  EC7A  F014         	call	_lcdData
  2119  000CE2                     
  2120                           ;posto.c: 90:         lcdData(((preco * 10) % 10) + 48);
  2121  000CE2  C049  F001         	movff	abastece@preco,___wmul@multiplier
  2122  000CE6  C04A  F002         	movff	abastece@preco+1,___wmul@multiplier+1
  2123  000CEA  0E00               	movlw	0
  2124  000CEC  6E04               	movwf	(___wmul@multiplicand+1)^0,c
  2125  000CEE  0E0A               	movlw	10
  2126  000CF0  6E03               	movwf	___wmul@multiplicand^0,c
  2127  000CF2  ECC0  F014         	call	___wmul	;wreg free
  2128  000CF6  C001  F008         	movff	?___wmul,___lwmod@dividend
  2129  000CFA  C002  F009         	movff	?___wmul+1,___lwmod@dividend+1
  2130  000CFE  0E00               	movlw	0
  2131  000D00  6E0B               	movwf	(___lwmod@divisor+1)^0,c
  2132  000D02  0E0A               	movlw	10
  2133  000D04  6E0A               	movwf	___lwmod@divisor^0,c
  2134  000D06  EC98  F013         	call	___lwmod	;wreg free
  2135  000D0A  5008               	movf	?___lwmod^0,w,c
  2136  000D0C  0F30               	addlw	48
  2137  000D0E  EC7A  F014         	call	_lcdData
  2138  000D12                     
  2139                           ;posto.c: 92:         litro++;
  2140  000D12  4A67               	infsnz	_litro^0,f,c
  2141  000D14  2A68               	incf	(_litro+1)^0,f,c
  2142  000D16                     
  2143                           ;posto.c: 93:         ssdDigit((litro / 10) % 10, 3);
  2144  000D16  0E03               	movlw	3
  2145  000D18  6E0D               	movwf	ssdDigit@pos^0,c
  2146  000D1A  0E00               	movlw	0
  2147  000D1C  6E04               	movwf	(___lwdiv@divisor+1)^0,c
  2148  000D1E  0E0A               	movlw	10
  2149  000D20  6E03               	movwf	___lwdiv@divisor^0,c
  2150  000D22  C067  F001         	movff	_litro,___lwdiv@dividend
  2151  000D26  C068  F002         	movff	_litro+1,___lwdiv@dividend+1
  2152  000D2A  ECF3  F012         	call	___lwdiv	;wreg free
  2153  000D2E  C001  F008         	movff	?___lwdiv,___lwmod@dividend
  2154  000D32  C002  F009         	movff	?___lwdiv+1,___lwmod@dividend+1
  2155  000D36  0E00               	movlw	0
  2156  000D38  6E0B               	movwf	(___lwmod@divisor+1)^0,c
  2157  000D3A  0E0A               	movlw	10
  2158  000D3C  6E0A               	movwf	___lwmod@divisor^0,c
  2159  000D3E  EC98  F013         	call	___lwmod	;wreg free
  2160  000D42  5008               	movf	?___lwmod^0,w,c
  2161  000D44  ECF8  F013         	call	_ssdDigit
  2162  000D48                     
  2163                           ;posto.c: 94:         ssdDigit((litro / 100) % 10, 2);
  2164  000D48  0E02               	movlw	2
  2165  000D4A  6E0D               	movwf	ssdDigit@pos^0,c
  2166  000D4C  0E00               	movlw	0
  2167  000D4E  6E04               	movwf	(___lwdiv@divisor+1)^0,c
  2168  000D50  0E64               	movlw	100
  2169  000D52  6E03               	movwf	___lwdiv@divisor^0,c
  2170  000D54  C067  F001         	movff	_litro,___lwdiv@dividend
  2171  000D58  C068  F002         	movff	_litro+1,___lwdiv@dividend+1
  2172  000D5C  ECF3  F012         	call	___lwdiv	;wreg free
  2173  000D60  C001  F008         	movff	?___lwdiv,___lwmod@dividend
  2174  000D64  C002  F009         	movff	?___lwdiv+1,___lwmod@dividend+1
  2175  000D68  0E00               	movlw	0
  2176  000D6A  6E0B               	movwf	(___lwmod@divisor+1)^0,c
  2177  000D6C  0E0A               	movlw	10
  2178  000D6E  6E0A               	movwf	___lwmod@divisor^0,c
  2179  000D70  EC98  F013         	call	___lwmod	;wreg free
  2180  000D74  5008               	movf	?___lwmod^0,w,c
  2181  000D76  ECF8  F013         	call	_ssdDigit
  2182  000D7A                     
  2183                           ;posto.c: 95:         ssdDigit((litro / 1000) % 10, 1);
  2184  000D7A  0E01               	movlw	1
  2185  000D7C  6E0D               	movwf	ssdDigit@pos^0,c
  2186  000D7E  0E03               	movlw	3
  2187  000D80  6E04               	movwf	(___lwdiv@divisor+1)^0,c
  2188  000D82  0EE8               	movlw	232
  2189  000D84  6E03               	movwf	___lwdiv@divisor^0,c
  2190  000D86  C067  F001         	movff	_litro,___lwdiv@dividend
  2191  000D8A  C068  F002         	movff	_litro+1,___lwdiv@dividend+1
  2192  000D8E  ECF3  F012         	call	___lwdiv	;wreg free
  2193  000D92  C001  F008         	movff	?___lwdiv,___lwmod@dividend
  2194  000D96  C002  F009         	movff	?___lwdiv+1,___lwmod@dividend+1
  2195  000D9A  0E00               	movlw	0
  2196  000D9C  6E0B               	movwf	(___lwmod@divisor+1)^0,c
  2197  000D9E  0E0A               	movlw	10
  2198  000DA0  6E0A               	movwf	___lwmod@divisor^0,c
  2199  000DA2  EC98  F013         	call	___lwmod	;wreg free
  2200  000DA6  5008               	movf	?___lwmod^0,w,c
  2201  000DA8  ECF8  F013         	call	_ssdDigit
  2202  000DAC                     
  2203                           ;posto.c: 96:         ssdDigit((litro / 10000) % 10, 0);
  2204  000DAC  0E00               	movlw	0
  2205  000DAE  6E0D               	movwf	ssdDigit@pos^0,c
  2206  000DB0  0E27               	movlw	39
  2207  000DB2  6E04               	movwf	(___lwdiv@divisor+1)^0,c
  2208  000DB4  0E10               	movlw	16
  2209  000DB6  6E03               	movwf	___lwdiv@divisor^0,c
  2210  000DB8  C067  F001         	movff	_litro,___lwdiv@dividend
  2211  000DBC  C068  F002         	movff	_litro+1,___lwdiv@dividend+1
  2212  000DC0  ECF3  F012         	call	___lwdiv	;wreg free
  2213  000DC4  C001  F008         	movff	?___lwdiv,___lwmod@dividend
  2214  000DC8  C002  F009         	movff	?___lwdiv+1,___lwmod@dividend+1
  2215  000DCC  0E00               	movlw	0
  2216  000DCE  6E0B               	movwf	(___lwmod@divisor+1)^0,c
  2217  000DD0  0E0A               	movlw	10
  2218  000DD2  6E0A               	movwf	___lwmod@divisor^0,c
  2219  000DD4  EC98  F013         	call	___lwmod	;wreg free
  2220  000DD8  5008               	movf	?___lwmod^0,w,c
  2221  000DDA  ECF8  F013         	call	_ssdDigit
  2222  000DDE                     
  2223                           ;posto.c: 98:         for (i = 0; i < 180; i++);
  2224  000DDE  0E00               	movlw	0
  2225  000DE0  6E44               	movwf	abastece@i^0,c
  2226  000DE2  0E00               	movlw	0
  2227  000DE4  6E45               	movwf	(abastece@i+1)^0,c
  2228  000DE6  0E00               	movlw	0
  2229  000DE8  6E46               	movwf	(abastece@i+2)^0,c
  2230  000DEA  0E00               	movlw	0
  2231  000DEC  6E47               	movwf	(abastece@i+3)^0,c
  2232  000DEE  C044  F001         	movff	abastece@i,___flge@ff1
  2233  000DF2  C045  F002         	movff	abastece@i+1,___flge@ff1+1
  2234  000DF6  C046  F003         	movff	abastece@i+2,___flge@ff1+2
  2235  000DFA  C047  F004         	movff	abastece@i+3,___flge@ff1+3
  2236  000DFE  0E00               	movlw	0
  2237  000E00  6E05               	movwf	___flge@ff2^0,c
  2238  000E02  0E00               	movlw	0
  2239  000E04  6E06               	movwf	(___flge@ff2+1)^0,c
  2240  000E06  0E34               	movlw	52
  2241  000E08  6E07               	movwf	(___flge@ff2+2)^0,c
  2242  000E0A  0E43               	movlw	67
  2243  000E0C  6E08               	movwf	(___flge@ff2+3)^0,c
  2244  000E0E  EC33  F011         	call	___flge	;wreg free
  2245  000E12  A0D8               	btfss	status,0,c
  2246  000E14  EF0E  F007         	goto	u3371
  2247  000E18  EF10  F007         	goto	u3370
  2248  000E1C                     u3371:
  2249  000E1C  EF12  F007         	goto	l3175
  2250  000E20                     u3370:
  2251  000E20  EF45  F007         	goto	l3177
  2252  000E24                     l3175:
  2253  000E24  C044  F001         	movff	abastece@i,___fladd@b
  2254  000E28  C045  F002         	movff	abastece@i+1,___fladd@b+1
  2255  000E2C  C046  F003         	movff	abastece@i+2,___fladd@b+2
  2256  000E30  C047  F004         	movff	abastece@i+3,___fladd@b+3
  2257  000E34  0E00               	movlw	0
  2258  000E36  6E05               	movwf	___fladd@a^0,c
  2259  000E38  0E00               	movlw	0
  2260  000E3A  6E06               	movwf	(___fladd@a+1)^0,c
  2261  000E3C  0E80               	movlw	128
  2262  000E3E  6E07               	movwf	(___fladd@a+2)^0,c
  2263  000E40  0E3F               	movlw	63
  2264  000E42  6E08               	movwf	(___fladd@a+3)^0,c
  2265  000E44  EC42  F003         	call	___fladd	;wreg free
  2266  000E48  C001  F044         	movff	?___fladd,abastece@i
  2267  000E4C  C002  F045         	movff	?___fladd+1,abastece@i+1
  2268  000E50  C003  F046         	movff	?___fladd+2,abastece@i+2
  2269  000E54  C004  F047         	movff	?___fladd+3,abastece@i+3
  2270  000E58  C044  F001         	movff	abastece@i,___flge@ff1
  2271  000E5C  C045  F002         	movff	abastece@i+1,___flge@ff1+1
  2272  000E60  C046  F003         	movff	abastece@i+2,___flge@ff1+2
  2273  000E64  C047  F004         	movff	abastece@i+3,___flge@ff1+3
  2274  000E68  0E00               	movlw	0
  2275  000E6A  6E05               	movwf	___flge@ff2^0,c
  2276  000E6C  0E00               	movlw	0
  2277  000E6E  6E06               	movwf	(___flge@ff2+1)^0,c
  2278  000E70  0E34               	movlw	52
  2279  000E72  6E07               	movwf	(___flge@ff2+2)^0,c
  2280  000E74  0E43               	movlw	67
  2281  000E76  6E08               	movwf	(___flge@ff2+3)^0,c
  2282  000E78  EC33  F011         	call	___flge	;wreg free
  2283  000E7C  A0D8               	btfss	status,0,c
  2284  000E7E  EF43  F007         	goto	u3381
  2285  000E82  EF45  F007         	goto	u3380
  2286  000E86                     u3381:
  2287  000E86  EF12  F007         	goto	l3175
  2288  000E8A                     u3380:
  2289  000E8A                     l3177:
  2290                           
  2291                           ;posto.c: 100:         ssdUpdate();
  2292  000E8A  EC08  F010         	call	_ssdUpdate	;wreg free
  2293  000E8E                     
  2294                           ;posto.c: 101:         kpDebounce();
  2295  000E8E  EC4B  F00F         	call	_kpDebounce	;wreg free
  2296  000E92                     l3181:
  2297                           
  2298                           ;posto.c: 78:     while (((kpRead()) & (1<<(indice)))) {
  2299  000E92  C036  F038         	movff	abastece@indice,??_abastece
  2300  000E96  0E01               	movlw	1
  2301  000E98  6E39               	movwf	(??_abastece+1)^0,c
  2302  000E9A  0E00               	movlw	0
  2303  000E9C  6E3A               	movwf	(??_abastece+2)^0,c
  2304  000E9E  2A38               	incf	??_abastece^0,f,c
  2305  000EA0  EF55  F007         	goto	u3394
  2306  000EA4                     u3395:
  2307  000EA4  90D8               	bcf	status,0,c
  2308  000EA6  3639               	rlcf	(??_abastece+1)^0,f,c
  2309  000EA8  363A               	rlcf	(??_abastece+2)^0,f,c
  2310  000EAA                     u3394:
  2311  000EAA  2E38               	decfsz	??_abastece^0,f,c
  2312  000EAC  EF52  F007         	goto	u3395
  2313  000EB0  EC13  F015         	call	_kpRead	;wreg free
  2314  000EB4  5039               	movf	(??_abastece+1)^0,w,c
  2315  000EB6  1601               	andwf	?_kpRead^0,f,c
  2316  000EB8  503A               	movf	(??_abastece+2)^0,w,c
  2317  000EBA  1602               	andwf	(?_kpRead+1)^0,f,c
  2318  000EBC  5001               	movf	?_kpRead^0,w,c
  2319  000EBE  1002               	iorwf	(?_kpRead+1)^0,w,c
  2320  000EC0  A4D8               	btfss	status,2,c
  2321  000EC2  EF65  F007         	goto	u3401
  2322  000EC6  EF67  F007         	goto	u3400
  2323  000ECA                     u3401:
  2324  000ECA  EFCE  F005         	goto	l3137
  2325  000ECE                     u3400:
  2326  000ECE                     
  2327                           ;posto.c: 103:     pwmSet1(0);
  2328  000ECE  0E00               	movlw	0
  2329  000ED0  EC2D  F013         	call	_pwmSet1
  2330  000ED4                     
  2331                           ;posto.c: 105:     litroTotal = litro;
  2332  000ED4  C067  F042         	movff	_litro,abastece@litroTotal
  2333  000ED8  C068  F043         	movff	_litro+1,abastece@litroTotal+1
  2334  000EDC                     
  2335                           ;posto.c: 106:     posAbastece(preco, litroTotal);
  2336  000EDC  C049  F011         	movff	abastece@preco,posAbastece@preco
  2337  000EE0  C04A  F012         	movff	abastece@preco+1,posAbastece@preco+1
  2338  000EE4  C042  F013         	movff	abastece@litroTotal,posAbastece@litroTotal
  2339  000EE8  C043  F014         	movff	abastece@litroTotal+1,posAbastece@litroTotal+1
  2340  000EEC  ECF6  F009         	call	_posAbastece	;wreg free
  2341  000EF0                     
  2342                           ;posto.c: 108:     litro = 0;
  2343  000EF0  0E00               	movlw	0
  2344  000EF2  6E68               	movwf	(_litro+1)^0,c
  2345  000EF4  0E00               	movlw	0
  2346  000EF6  6E67               	movwf	_litro^0,c
  2347  000EF8                     
  2348                           ;posto.c: 109:     ssdDigit((litro / 10) % 10, 3);
  2349  000EF8  0E03               	movlw	3
  2350  000EFA  6E0D               	movwf	ssdDigit@pos^0,c
  2351  000EFC  0E00               	movlw	0
  2352  000EFE  6E04               	movwf	(___lwdiv@divisor+1)^0,c
  2353  000F00  0E0A               	movlw	10
  2354  000F02  6E03               	movwf	___lwdiv@divisor^0,c
  2355  000F04  0E00               	movlw	0
  2356  000F06  6E02               	movwf	(___lwdiv@dividend+1)^0,c
  2357  000F08  0E00               	movlw	0
  2358  000F0A  6E01               	movwf	___lwdiv@dividend^0,c
  2359  000F0C  ECF3  F012         	call	___lwdiv	;wreg free
  2360  000F10  C001  F008         	movff	?___lwdiv,___lwmod@dividend
  2361  000F14  C002  F009         	movff	?___lwdiv+1,___lwmod@dividend+1
  2362  000F18  0E00               	movlw	0
  2363  000F1A  6E0B               	movwf	(___lwmod@divisor+1)^0,c
  2364  000F1C  0E0A               	movlw	10
  2365  000F1E  6E0A               	movwf	___lwmod@divisor^0,c
  2366  000F20  EC98  F013         	call	___lwmod	;wreg free
  2367  000F24  5008               	movf	?___lwmod^0,w,c
  2368  000F26  ECF8  F013         	call	_ssdDigit
  2369  000F2A                     
  2370                           ;posto.c: 110:     ssdDigit((litro / 100) % 10, 2);
  2371  000F2A  0E02               	movlw	2
  2372  000F2C  6E0D               	movwf	ssdDigit@pos^0,c
  2373  000F2E  0E00               	movlw	0
  2374  000F30  6E04               	movwf	(___lwdiv@divisor+1)^0,c
  2375  000F32  0E64               	movlw	100
  2376  000F34  6E03               	movwf	___lwdiv@divisor^0,c
  2377  000F36  0E00               	movlw	0
  2378  000F38  6E02               	movwf	(___lwdiv@dividend+1)^0,c
  2379  000F3A  0E00               	movlw	0
  2380  000F3C  6E01               	movwf	___lwdiv@dividend^0,c
  2381  000F3E  ECF3  F012         	call	___lwdiv	;wreg free
  2382  000F42  C001  F008         	movff	?___lwdiv,___lwmod@dividend
  2383  000F46  C002  F009         	movff	?___lwdiv+1,___lwmod@dividend+1
  2384  000F4A  0E00               	movlw	0
  2385  000F4C  6E0B               	movwf	(___lwmod@divisor+1)^0,c
  2386  000F4E  0E0A               	movlw	10
  2387  000F50  6E0A               	movwf	___lwmod@divisor^0,c
  2388  000F52  EC98  F013         	call	___lwmod	;wreg free
  2389  000F56  5008               	movf	?___lwmod^0,w,c
  2390  000F58  ECF8  F013         	call	_ssdDigit
  2391  000F5C                     
  2392                           ;posto.c: 111:     ssdDigit((litro / 1000) % 10, 1);
  2393  000F5C  0E01               	movlw	1
  2394  000F5E  6E0D               	movwf	ssdDigit@pos^0,c
  2395  000F60  0E03               	movlw	3
  2396  000F62  6E04               	movwf	(___lwdiv@divisor+1)^0,c
  2397  000F64  0EE8               	movlw	232
  2398  000F66  6E03               	movwf	___lwdiv@divisor^0,c
  2399  000F68  0E00               	movlw	0
  2400  000F6A  6E02               	movwf	(___lwdiv@dividend+1)^0,c
  2401  000F6C  0E00               	movlw	0
  2402  000F6E  6E01               	movwf	___lwdiv@dividend^0,c
  2403  000F70  ECF3  F012         	call	___lwdiv	;wreg free
  2404  000F74  C001  F008         	movff	?___lwdiv,___lwmod@dividend
  2405  000F78  C002  F009         	movff	?___lwdiv+1,___lwmod@dividend+1
  2406  000F7C  0E00               	movlw	0
  2407  000F7E  6E0B               	movwf	(___lwmod@divisor+1)^0,c
  2408  000F80  0E0A               	movlw	10
  2409  000F82  6E0A               	movwf	___lwmod@divisor^0,c
  2410  000F84  EC98  F013         	call	___lwmod	;wreg free
  2411  000F88  5008               	movf	?___lwmod^0,w,c
  2412  000F8A  ECF8  F013         	call	_ssdDigit
  2413  000F8E                     
  2414                           ;posto.c: 112:     ssdDigit((litro / 10000) % 10, 0);
  2415  000F8E  0E00               	movlw	0
  2416  000F90  6E0D               	movwf	ssdDigit@pos^0,c
  2417  000F92  0E27               	movlw	39
  2418  000F94  6E04               	movwf	(___lwdiv@divisor+1)^0,c
  2419  000F96  0E10               	movlw	16
  2420  000F98  6E03               	movwf	___lwdiv@divisor^0,c
  2421  000F9A  0E00               	movlw	0
  2422  000F9C  6E02               	movwf	(___lwdiv@dividend+1)^0,c
  2423  000F9E  0E00               	movlw	0
  2424  000FA0  6E01               	movwf	___lwdiv@dividend^0,c
  2425  000FA2  ECF3  F012         	call	___lwdiv	;wreg free
  2426  000FA6  C001  F008         	movff	?___lwdiv,___lwmod@dividend
  2427  000FAA  C002  F009         	movff	?___lwdiv+1,___lwmod@dividend+1
  2428  000FAE  0E00               	movlw	0
  2429  000FB0  6E0B               	movwf	(___lwmod@divisor+1)^0,c
  2430  000FB2  0E0A               	movlw	10
  2431  000FB4  6E0A               	movwf	___lwmod@divisor^0,c
  2432  000FB6  EC98  F013         	call	___lwmod	;wreg free
  2433  000FBA  5008               	movf	?___lwmod^0,w,c
  2434  000FBC  ECF8  F013         	call	_ssdDigit
  2435  000FC0  0012               	return		;funcret
  2436  000FC2                     __end_of_abastece:
  2437                           	callstack 0
  2438                           
  2439 ;; *************** function _ssdUpdate *****************
  2440 ;; Defined at:
  2441 ;;		line 54 in file "ssd.c"
  2442 ;; Parameters:    Size  Location     Type
  2443 ;;		None
  2444 ;; Auto vars:     Size  Location     Type
  2445 ;;		None
  2446 ;; Return value:  Size  Location     Type
  2447 ;;                  1    wreg      void 
  2448 ;; Registers used:
  2449 ;;		wreg, status,2, status,0, tblptrl, tblptrh, tblptru, cstack
  2450 ;; Tracked objects:
  2451 ;;		On entry : 0/0
  2452 ;;		On exit  : 0/0
  2453 ;;		Unchanged: 0/0
  2454 ;; Data sizes:     COMRAM   BANK0   BANK1   BANK2   BANK3   BANK4   BANK5
  2455 ;;      Params:         0       0       0       0       0       0       0
  2456 ;;      Locals:         0       0       0       0       0       0       0
  2457 ;;      Temps:          2       0       0       0       0       0       0
  2458 ;;      Totals:         2       0       0       0       0       0       0
  2459 ;;Total ram usage:        2 bytes
  2460 ;; Hardware stack levels used: 1
  2461 ;; Hardware stack levels required when called: 1
  2462 ;; This function calls:
  2463 ;;		_digitalWrite
  2464 ;; This function is called by:
  2465 ;;		_main
  2466 ;;		_abastece
  2467 ;; This function uses a non-reentrant model
  2468 ;;
  2469                           
  2470                           	psect	text9
  2471  002010                     __ptext9:
  2472                           	callstack 0
  2473  002010                     _ssdUpdate:
  2474                           	callstack 29
  2475  002010                     
  2476                           ;ssd.c: 58:     TRISD= 0x00;
  2477  002010  0E00               	movlw	0
  2478  002012  6E95               	movwf	149,c	;volatile
  2479  002014                     
  2480                           ;ssd.c: 60:     digitalWrite(PIN_A2,0);
  2481  002014  0E00               	movlw	0
  2482  002016  6E02               	movwf	(digitalWrite@pin+1)^0,c
  2483  002018  0E02               	movlw	2
  2484  00201A  6E01               	movwf	digitalWrite@pin^0,c
  2485  00201C  0E00               	movlw	0
  2486  00201E  6E04               	movwf	(digitalWrite@value+1)^0,c
  2487  002020  0E00               	movlw	0
  2488  002022  6E03               	movwf	digitalWrite@value^0,c
  2489  002024  EC84  F00C         	call	_digitalWrite	;wreg free
  2490  002028                     
  2491                           ;ssd.c: 61:     digitalWrite(PIN_A3,0);
  2492  002028  0E00               	movlw	0
  2493  00202A  6E02               	movwf	(digitalWrite@pin+1)^0,c
  2494  00202C  0E03               	movlw	3
  2495  00202E  6E01               	movwf	digitalWrite@pin^0,c
  2496  002030  0E00               	movlw	0
  2497  002032  6E04               	movwf	(digitalWrite@value+1)^0,c
  2498  002034  0E00               	movlw	0
  2499  002036  6E03               	movwf	digitalWrite@value^0,c
  2500  002038  EC84  F00C         	call	_digitalWrite	;wreg free
  2501  00203C                     
  2502                           ;ssd.c: 62:     digitalWrite(PIN_A4,0);
  2503  00203C  0E00               	movlw	0
  2504  00203E  6E02               	movwf	(digitalWrite@pin+1)^0,c
  2505  002040  0E04               	movlw	4
  2506  002042  6E01               	movwf	digitalWrite@pin^0,c
  2507  002044  0E00               	movlw	0
  2508  002046  6E04               	movwf	(digitalWrite@value+1)^0,c
  2509  002048  0E00               	movlw	0
  2510  00204A  6E03               	movwf	digitalWrite@value^0,c
  2511  00204C  EC84  F00C         	call	_digitalWrite	;wreg free
  2512  002050                     
  2513                           ;ssd.c: 63:     digitalWrite(PIN_A5,0);
  2514  002050  0E00               	movlw	0
  2515  002052  6E02               	movwf	(digitalWrite@pin+1)^0,c
  2516  002054  0E05               	movlw	5
  2517  002056  6E01               	movwf	digitalWrite@pin^0,c
  2518  002058  0E00               	movlw	0
  2519  00205A  6E04               	movwf	(digitalWrite@value+1)^0,c
  2520  00205C  0E00               	movlw	0
  2521  00205E  6E03               	movwf	digitalWrite@value^0,c
  2522  002060  EC84  F00C         	call	_digitalWrite	;wreg free
  2523                           
  2524                           ;ssd.c: 66:     PORTD = 0x00;
  2525  002064  0E00               	movlw	0
  2526  002066  6E83               	movwf	131,c	;volatile
  2527                           
  2528                           ;ssd.c: 69:     switch (display)
  2529  002068  EF92  F010         	goto	l2439
  2530  00206C                     l2411:
  2531                           
  2532                           ;ssd.c: 72:             PORTD = valor[v0];
  2533  00206C  0E01               	movlw	low _valor@ssd$F211
  2534  00206E  2472               	addwf	_v0^0,w,c
  2535  002070  6EF6               	movwf	tblptrl,c
  2536  002072  6AF7               	clrf	tblptrh,c
  2537  002074  0E06               	movlw	high _valor@ssd$F211
  2538  002076  22F7               	addwfc	tblptrh,f,c
  2539  002078                     	if	0	;There are less than 3 active tblptr bytes
  2540  002078                     	endif
  2541  002078  0008               	tblrd		*
  2542  00207A  CFF5 FF83          	movff	tablat,3971	;volatile
  2543  00207E                     
  2544                           ;ssd.c: 73:             digitalWrite(PIN_A2,1);
  2545  00207E  0E00               	movlw	0
  2546  002080  6E02               	movwf	(digitalWrite@pin+1)^0,c
  2547  002082  0E02               	movlw	2
  2548  002084  6E01               	movwf	digitalWrite@pin^0,c
  2549  002086  0E00               	movlw	0
  2550  002088  6E04               	movwf	(digitalWrite@value+1)^0,c
  2551  00208A  0E01               	movlw	1
  2552  00208C  6E03               	movwf	digitalWrite@value^0,c
  2553  00208E  EC84  F00C         	call	_digitalWrite	;wreg free
  2554  002092                     
  2555                           ;ssd.c: 74:             display = 1;
  2556  002092  0E01               	movlw	1
  2557  002094  6E73               	movwf	_display^0,c
  2558                           
  2559                           ;ssd.c: 75:             break;
  2560  002096  EFAF  F010         	goto	l215
  2561  00209A                     l2417:
  2562                           
  2563                           ;ssd.c: 78:             PORTD = valor[v1];
  2564  00209A  0E01               	movlw	low _valor@ssd$F211
  2565  00209C  2471               	addwf	_v1^0,w,c
  2566  00209E  6EF6               	movwf	tblptrl,c
  2567  0020A0  6AF7               	clrf	tblptrh,c
  2568  0020A2  0E06               	movlw	high _valor@ssd$F211
  2569  0020A4  22F7               	addwfc	tblptrh,f,c
  2570  0020A6                     	if	0	;There are less than 3 active tblptr bytes
  2571  0020A6                     	endif
  2572  0020A6  0008               	tblrd		*
  2573  0020A8  CFF5 FF83          	movff	tablat,3971	;volatile
  2574  0020AC                     
  2575                           ;ssd.c: 79:             digitalWrite(PIN_A3,1);
  2576  0020AC  0E00               	movlw	0
  2577  0020AE  6E02               	movwf	(digitalWrite@pin+1)^0,c
  2578  0020B0  0E03               	movlw	3
  2579  0020B2  6E01               	movwf	digitalWrite@pin^0,c
  2580  0020B4  0E00               	movlw	0
  2581  0020B6  6E04               	movwf	(digitalWrite@value+1)^0,c
  2582  0020B8  0E01               	movlw	1
  2583  0020BA  6E03               	movwf	digitalWrite@value^0,c
  2584  0020BC  EC84  F00C         	call	_digitalWrite	;wreg free
  2585  0020C0                     
  2586                           ;ssd.c: 80:             display = 2;
  2587  0020C0  0E02               	movlw	2
  2588  0020C2  6E73               	movwf	_display^0,c
  2589                           
  2590                           ;ssd.c: 81:             break;
  2591  0020C4  EFAF  F010         	goto	l215
  2592  0020C8                     l2423:
  2593                           
  2594                           ;ssd.c: 84:             PORTD = valor[v2];
  2595  0020C8  0E01               	movlw	low _valor@ssd$F211
  2596  0020CA  2470               	addwf	_v2^0,w,c
  2597  0020CC  6EF6               	movwf	tblptrl,c
  2598  0020CE  6AF7               	clrf	tblptrh,c
  2599  0020D0  0E06               	movlw	high _valor@ssd$F211
  2600  0020D2  22F7               	addwfc	tblptrh,f,c
  2601  0020D4                     	if	0	;There are less than 3 active tblptr bytes
  2602  0020D4                     	endif
  2603  0020D4  0008               	tblrd		*
  2604  0020D6  CFF5 FF83          	movff	tablat,3971	;volatile
  2605  0020DA                     
  2606                           ;ssd.c: 85:             digitalWrite(PIN_A4,1);
  2607  0020DA  0E00               	movlw	0
  2608  0020DC  6E02               	movwf	(digitalWrite@pin+1)^0,c
  2609  0020DE  0E04               	movlw	4
  2610  0020E0  6E01               	movwf	digitalWrite@pin^0,c
  2611  0020E2  0E00               	movlw	0
  2612  0020E4  6E04               	movwf	(digitalWrite@value+1)^0,c
  2613  0020E6  0E01               	movlw	1
  2614  0020E8  6E03               	movwf	digitalWrite@value^0,c
  2615  0020EA  EC84  F00C         	call	_digitalWrite	;wreg free
  2616  0020EE                     
  2617                           ;ssd.c: 86:             display = 3;
  2618  0020EE  0E03               	movlw	3
  2619  0020F0  6E73               	movwf	_display^0,c
  2620                           
  2621                           ;ssd.c: 87:             break;
  2622  0020F2  EFAF  F010         	goto	l215
  2623  0020F6                     l2429:
  2624                           
  2625                           ;ssd.c: 90:             PORTD = valor[v3];
  2626  0020F6  0E01               	movlw	low _valor@ssd$F211
  2627  0020F8  246F               	addwf	_v3^0,w,c
  2628  0020FA  6EF6               	movwf	tblptrl,c
  2629  0020FC  6AF7               	clrf	tblptrh,c
  2630  0020FE  0E06               	movlw	high _valor@ssd$F211
  2631  002100  22F7               	addwfc	tblptrh,f,c
  2632  002102                     	if	0	;There are less than 3 active tblptr bytes
  2633  002102                     	endif
  2634  002102  0008               	tblrd		*
  2635  002104  CFF5 FF83          	movff	tablat,3971	;volatile
  2636  002108                     
  2637                           ;ssd.c: 91:             digitalWrite(PIN_A5,1);
  2638  002108  0E00               	movlw	0
  2639  00210A  6E02               	movwf	(digitalWrite@pin+1)^0,c
  2640  00210C  0E05               	movlw	5
  2641  00210E  6E01               	movwf	digitalWrite@pin^0,c
  2642  002110  0E00               	movlw	0
  2643  002112  6E04               	movwf	(digitalWrite@value+1)^0,c
  2644  002114  0E01               	movlw	1
  2645  002116  6E03               	movwf	digitalWrite@value^0,c
  2646  002118  EC84  F00C         	call	_digitalWrite	;wreg free
  2647  00211C                     l2433:
  2648                           
  2649                           ;ssd.c: 92:             display = 0;
  2650  00211C  0E00               	movlw	0
  2651  00211E  6E73               	movwf	_display^0,c
  2652                           
  2653                           ;ssd.c: 93:             break;
  2654  002120  EFAF  F010         	goto	l215
  2655  002124                     l2439:
  2656  002124  5073               	movf	_display^0,w,c
  2657  002126  6E07               	movwf	??_ssdUpdate^0,c
  2658  002128  6A08               	clrf	(??_ssdUpdate+1)^0,c
  2659                           
  2660                           ; Switch on 2 bytes has been partitioned into a top level switch of size 1, and 1 sub-sw
      +                          itches
  2661                           ; Switch size 1, requested type "simple"
  2662                           ; Number of cases is 1, Range of values is 0 to 0
  2663                           ; switch strategies available:
  2664                           ; Name         Instructions Cycles
  2665                           ; simple_byte            4     3 (average)
  2666                           ;	Chosen strategy is simple_byte
  2667  00212A  5008               	movf	(??_ssdUpdate+1)^0,w,c
  2668  00212C  0A00               	xorlw	0	; case 0
  2669  00212E  B4D8               	btfsc	status,2,c
  2670  002130  EF9C  F010         	goto	l3255
  2671  002134  EF8E  F010         	goto	l2433
  2672  002138                     l3255:
  2673                           
  2674                           ; Switch size 1, requested type "simple"
  2675                           ; Number of cases is 4, Range of values is 0 to 3
  2676                           ; switch strategies available:
  2677                           ; Name         Instructions Cycles
  2678                           ; simple_byte           13     7 (average)
  2679                           ;	Chosen strategy is simple_byte
  2680  002138  5007               	movf	??_ssdUpdate^0,w,c
  2681  00213A  0A00               	xorlw	0	; case 0
  2682  00213C  B4D8               	btfsc	status,2,c
  2683  00213E  EF36  F010         	goto	l2411
  2684  002142  0A01               	xorlw	1	; case 1
  2685  002144  B4D8               	btfsc	status,2,c
  2686  002146  EF4D  F010         	goto	l2417
  2687  00214A  0A03               	xorlw	3	; case 2
  2688  00214C  B4D8               	btfsc	status,2,c
  2689  00214E  EF64  F010         	goto	l2423
  2690  002152  0A01               	xorlw	1	; case 3
  2691  002154  B4D8               	btfsc	status,2,c
  2692  002156  EF7B  F010         	goto	l2429
  2693  00215A  EF8E  F010         	goto	l2433
  2694  00215E                     l215:
  2695  00215E  0012               	return		;funcret
  2696  002160                     __end_of_ssdUpdate:
  2697                           	callstack 0
  2698                           
  2699 ;; *************** function _ssdDigit *****************
  2700 ;; Defined at:
  2701 ;;		line 38 in file "ssd.c"
  2702 ;; Parameters:    Size  Location     Type
  2703 ;;  val             1    wreg     unsigned char 
  2704 ;;  pos             1   12[COMRAM] unsigned char 
  2705 ;; Auto vars:     Size  Location     Type
  2706 ;;  val             1   13[COMRAM] unsigned char 
  2707 ;; Return value:  Size  Location     Type
  2708 ;;                  1    wreg      void 
  2709 ;; Registers used:
  2710 ;;		wreg, status,2, status,0
  2711 ;; Tracked objects:
  2712 ;;		On entry : 0/0
  2713 ;;		On exit  : 0/0
  2714 ;;		Unchanged: 0/0
  2715 ;; Data sizes:     COMRAM   BANK0   BANK1   BANK2   BANK3   BANK4   BANK5
  2716 ;;      Params:         1       0       0       0       0       0       0
  2717 ;;      Locals:         1       0       0       0       0       0       0
  2718 ;;      Temps:          0       0       0       0       0       0       0
  2719 ;;      Totals:         2       0       0       0       0       0       0
  2720 ;;Total ram usage:        2 bytes
  2721 ;; Hardware stack levels used: 1
  2722 ;; This function calls:
  2723 ;;		Nothing
  2724 ;; This function is called by:
  2725 ;;		_abastece
  2726 ;; This function uses a non-reentrant model
  2727 ;;
  2728                           
  2729                           	psect	text10
  2730  0027F0                     __ptext10:
  2731                           	callstack 0
  2732  0027F0                     _ssdDigit:
  2733                           	callstack 29
  2734                           
  2735                           ;incstack = 0
  2736                           ;ssdDigit@val stored from wreg
  2737  0027F0  6E0E               	movwf	ssdDigit@val^0,c
  2738  0027F2                     
  2739                           ;ssd.c: 39:     if (pos == 0) {
  2740  0027F2  500D               	movf	ssdDigit@pos^0,w,c
  2741  0027F4  A4D8               	btfss	status,2,c
  2742  0027F6  EFFF  F013         	goto	u2431
  2743  0027FA  EF01  F014         	goto	u2430
  2744  0027FE                     u2431:
  2745  0027FE  EF03  F014         	goto	l2489
  2746  002802                     u2430:
  2747  002802                     
  2748                           ;ssd.c: 40:         v0 = val;
  2749  002802  C00E  F072         	movff	ssdDigit@val,_v0
  2750  002806                     l2489:
  2751                           
  2752                           ;ssd.c: 42:     if (pos == 1) {
  2753  002806  040D               	decf	ssdDigit@pos^0,w,c
  2754  002808  A4D8               	btfss	status,2,c
  2755  00280A  EF09  F014         	goto	u2441
  2756  00280E  EF0B  F014         	goto	u2440
  2757  002812                     u2441:
  2758  002812  EF0D  F014         	goto	l2493
  2759  002816                     u2440:
  2760  002816                     
  2761                           ;ssd.c: 43:         v1 = val;
  2762  002816  C00E  F071         	movff	ssdDigit@val,_v1
  2763  00281A                     l2493:
  2764                           
  2765                           ;ssd.c: 45:     if (pos == 2) {
  2766  00281A  0E02               	movlw	2
  2767  00281C  180D               	xorwf	ssdDigit@pos^0,w,c
  2768  00281E  A4D8               	btfss	status,2,c
  2769  002820  EF14  F014         	goto	u2451
  2770  002824  EF16  F014         	goto	u2450
  2771  002828                     u2451:
  2772  002828  EF18  F014         	goto	l2497
  2773  00282C                     u2450:
  2774  00282C                     
  2775                           ;ssd.c: 46:         v2 = val;
  2776  00282C  C00E  F070         	movff	ssdDigit@val,_v2
  2777  002830                     l2497:
  2778                           
  2779                           ;ssd.c: 48:     if (pos == 3) {
  2780  002830  0E03               	movlw	3
  2781  002832  180D               	xorwf	ssdDigit@pos^0,w,c
  2782  002834  A4D8               	btfss	status,2,c
  2783  002836  EF1F  F014         	goto	u2461
  2784  00283A  EF21  F014         	goto	u2460
  2785  00283E                     u2461:
  2786  00283E  EF23  F014         	goto	l205
  2787  002842                     u2460:
  2788  002842                     
  2789                           ;ssd.c: 49:         v3 = val;
  2790  002842  C00E  F06F         	movff	ssdDigit@val,_v3
  2791  002846                     l205:
  2792  002846  0012               	return		;funcret
  2793  002848                     __end_of_ssdDigit:
  2794                           	callstack 0
  2795                           
  2796 ;; *************** function _pwmSet1 *****************
  2797 ;; Defined at:
  2798 ;;		line 23 in file "pwm.c"
  2799 ;; Parameters:    Size  Location     Type
  2800 ;;  porcento        1    wreg     unsigned char 
  2801 ;; Auto vars:     Size  Location     Type
  2802 ;;  porcento        1    9[COMRAM] unsigned char 
  2803 ;;  val             2   10[COMRAM] unsigned int 
  2804 ;; Return value:  Size  Location     Type
  2805 ;;                  1    wreg      void 
  2806 ;; Registers used:
  2807 ;;		wreg, status,2, status,0, prodl, prodh, cstack
  2808 ;; Tracked objects:
  2809 ;;		On entry : 0/0
  2810 ;;		On exit  : 0/0
  2811 ;;		Unchanged: 0/0
  2812 ;; Data sizes:     COMRAM   BANK0   BANK1   BANK2   BANK3   BANK4   BANK5
  2813 ;;      Params:         0       0       0       0       0       0       0
  2814 ;;      Locals:         3       0       0       0       0       0       0
  2815 ;;      Temps:          2       0       0       0       0       0       0
  2816 ;;      Totals:         5       0       0       0       0       0       0
  2817 ;;Total ram usage:        5 bytes
  2818 ;; Hardware stack levels used: 1
  2819 ;; Hardware stack levels required when called: 1
  2820 ;; This function calls:
  2821 ;;		___lwdiv
  2822 ;;		___wmul
  2823 ;; This function is called by:
  2824 ;;		_abastece
  2825 ;; This function uses a non-reentrant model
  2826 ;;
  2827                           
  2828                           	psect	text11
  2829  00265A                     __ptext11:
  2830                           	callstack 0
  2831  00265A                     _pwmSet1:
  2832                           	callstack 28
  2833                           
  2834                           ;incstack = 0
  2835                           ;pwmSet1@porcento stored from wreg
  2836  00265A  6E0A               	movwf	pwmSet1@porcento^0,c
  2837  00265C                     
  2838                           ;pwm.c: 23: void pwmSet1(unsigned char porcento);pwm.c: 24: {;pwm.c: 30:  unsigned int v
      +                          al = ((unsigned int)porcento) *((*(volatile __near unsigned char*)0xFCB)+1);
  2839  00265C  0E01               	movlw	1
  2840  00265E  24CB               	addwf	203,w,c	;volatile
  2841  002660  6E01               	movwf	___wmul@multiplier^0,c
  2842  002662  6A02               	clrf	(___wmul@multiplier+1)^0,c
  2843  002664  0E00               	movlw	0
  2844  002666  2202               	addwfc	(___wmul@multiplier+1)^0,f,c
  2845  002668  C00A  F003         	movff	pwmSet1@porcento,___wmul@multiplicand
  2846  00266C  6A04               	clrf	(___wmul@multiplicand+1)^0,c
  2847  00266E  ECC0  F014         	call	___wmul	;wreg free
  2848  002672  C001  F00B         	movff	?___wmul,pwmSet1@val
  2849  002676  C002  F00C         	movff	?___wmul+1,pwmSet1@val+1
  2850  00267A                     
  2851                           ;pwm.c: 31:  val = val / 25;
  2852  00267A  C00B  F001         	movff	pwmSet1@val,___lwdiv@dividend
  2853  00267E  C00C  F002         	movff	pwmSet1@val+1,___lwdiv@dividend+1
  2854  002682  0E00               	movlw	0
  2855  002684  6E04               	movwf	(___lwdiv@divisor+1)^0,c
  2856  002686  0E19               	movlw	25
  2857  002688  6E03               	movwf	___lwdiv@divisor^0,c
  2858  00268A  ECF3  F012         	call	___lwdiv	;wreg free
  2859  00268E  C001  F00B         	movff	?___lwdiv,pwmSet1@val
  2860  002692  C002  F00C         	movff	?___lwdiv+1,pwmSet1@val+1
  2861  002696                     
  2862                           ;pwm.c: 33:  val &= 0x03ff;
  2863  002696  0EFF               	movlw	255
  2864  002698  160B               	andwf	pwmSet1@val^0,f,c
  2865  00269A  0E03               	movlw	3
  2866  00269C  160C               	andwf	(pwmSet1@val+1)^0,f,c
  2867  00269E                     
  2868                           ;pwm.c: 35:  (*(volatile __near unsigned char*)0xFBE) = val >> 2;
  2869  00269E  C00B  F008         	movff	pwmSet1@val,??_pwmSet1
  2870  0026A2  C00C  F009         	movff	pwmSet1@val+1,??_pwmSet1+1
  2871  0026A6  90D8               	bcf	status,0,c
  2872  0026A8  3209               	rrcf	(??_pwmSet1+1)^0,f,c
  2873  0026AA  3208               	rrcf	??_pwmSet1^0,f,c
  2874  0026AC  90D8               	bcf	status,0,c
  2875  0026AE  3209               	rrcf	(??_pwmSet1+1)^0,f,c
  2876  0026B0  3208               	rrcf	??_pwmSet1^0,f,c
  2877  0026B2  5008               	movf	??_pwmSet1^0,w,c
  2878  0026B4  6EBE               	movwf	190,c	;volatile
  2879  0026B6                     
  2880                           ;pwm.c: 37:  (*(volatile __near unsigned char*)0xFBD) |= (val & 0x0003) << 4;
  2881  0026B6  C00B  F008         	movff	pwmSet1@val,??_pwmSet1
  2882  0026BA  0E03               	movlw	3
  2883  0026BC  1608               	andwf	??_pwmSet1^0,f,c
  2884  0026BE  3808               	swapf	??_pwmSet1^0,w,c
  2885  0026C0  0BF0               	andlw	240
  2886  0026C2  12BD               	iorwf	189,f,c	;volatile
  2887  0026C4  0012               	return		;funcret
  2888  0026C6                     __end_of_pwmSet1:
  2889                           	callstack 0
  2890                           
  2891 ;; *************** function _posAbastece *****************
  2892 ;; Defined at:
  2893 ;;		line 115 in file "posto.c"
  2894 ;; Parameters:    Size  Location     Type
  2895 ;;  preco           2   16[COMRAM] unsigned int 
  2896 ;;  litroTotal      2   18[COMRAM] unsigned int 
  2897 ;; Auto vars:     Size  Location     Type
  2898 ;;  totalL          8   20[COMRAM] unsigned char [8]
  2899 ;;  totalP          7   28[COMRAM] unsigned char [7]
  2900 ;;  i               1   36[COMRAM] unsigned char 
  2901 ;;  continuar       1   35[COMRAM] unsigned char 
  2902 ;; Return value:  Size  Location     Type
  2903 ;;                  1    wreg      void 
  2904 ;; Registers used:
  2905 ;;		wreg, fsr1l, fsr1h, fsr2l, fsr2h, status,2, status,0, tblptrl, tblptrh, tblptru, prodl, prodh, cstack
  2906 ;; Tracked objects:
  2907 ;;		On entry : 0/0
  2908 ;;		On exit  : 0/0
  2909 ;;		Unchanged: 0/0
  2910 ;; Data sizes:     COMRAM   BANK0   BANK1   BANK2   BANK3   BANK4   BANK5
  2911 ;;      Params:         4       0       0       0       0       0       0
  2912 ;;      Locals:        17       0       0       0       0       0       0
  2913 ;;      Temps:          0       0       0       0       0       0       0
  2914 ;;      Totals:        21       0       0       0       0       0       0
  2915 ;;Total ram usage:       21 bytes
  2916 ;; Hardware stack levels used: 1
  2917 ;; Hardware stack levels required when called: 4
  2918 ;; This function calls:
  2919 ;;		___lwdiv
  2920 ;;		___lwmod
  2921 ;;		___wmul
  2922 ;;		_kpDebounce
  2923 ;;		_kpRead
  2924 ;;		_lcdCommand
  2925 ;;		_lcdData
  2926 ;;		_printf
  2927 ;;		_segundo
  2928 ;; This function is called by:
  2929 ;;		_abastece
  2930 ;; This function uses a non-reentrant model
  2931 ;;
  2932                           
  2933                           	psect	text12
  2934  0013EC                     __ptext12:
  2935                           	callstack 0
  2936  0013EC                     _posAbastece:
  2937                           	callstack 25
  2938  0013EC                     
  2939                           ;posto.c: 116:     char i, totalP[7] = "total:", totalL[8] = "litros:", continuar = 0;
  2940  0013EC  EE20  F059         	lfsr	2,posAbastece@F2407
  2941  0013F0  EE10  F01D         	lfsr	1,posAbastece@totalP
  2942  0013F4  0E06               	movlw	6
  2943  0013F6                     u2471:
  2944  0013F6  CFDB FFE3          	movff	plusw2,plusw1
  2945  0013FA  06E8               	decf	wreg,f,c
  2946  0013FC  E2FC               	bc	u2471
  2947  0013FE  EE20  F051         	lfsr	2,posAbastece@F2409
  2948  001402  EE10  F015         	lfsr	1,posAbastece@totalL
  2949  001406  0E07               	movlw	7
  2950  001408                     u2481:
  2951  001408  CFDB FFE3          	movff	plusw2,plusw1
  2952  00140C  06E8               	decf	wreg,f,c
  2953  00140E  E2FC               	bc	u2481
  2954  001410  0E00               	movlw	0
  2955  001412  6E24               	movwf	posAbastece@continuar^0,c
  2956  001414                     
  2957                           ;posto.c: 118:     lcdCommand(0x01);
  2958  001414  0E01               	movlw	1
  2959  001416  EC78  F012         	call	_lcdCommand
  2960  00141A                     
  2961                           ;posto.c: 119:     for (i = 0; i < 6; i++) {
  2962  00141A  0E00               	movlw	0
  2963  00141C  6E25               	movwf	posAbastece@i^0,c
  2964  00141E                     l2567:
  2965                           
  2966                           ;posto.c: 120:         lcdData(totalP[i]);
  2967  00141E  0E1D               	movlw	low posAbastece@totalP
  2968  001420  2425               	addwf	posAbastece@i^0,w,c
  2969  001422  6ED9               	movwf	fsr2l,c
  2970  001424  6ADA               	clrf	fsr2h,c
  2971  001426  0E00               	movlw	high posAbastece@totalP
  2972  001428  22DA               	addwfc	fsr2h,f,c
  2973  00142A  50DF               	movf	indf2,w,c
  2974  00142C  EC7A  F014         	call	_lcdData
  2975  001430                     
  2976                           ;posto.c: 121:     }
  2977  001430  2A25               	incf	posAbastece@i^0,f,c
  2978  001432  0E05               	movlw	5
  2979  001434  6425               	cpfsgt	posAbastece@i^0,c
  2980  001436  EF1F  F00A         	goto	u2491
  2981  00143A  EF21  F00A         	goto	u2490
  2982  00143E                     u2491:
  2983  00143E  EF0F  F00A         	goto	l2567
  2984  001442                     u2490:
  2985  001442                     
  2986                           ;posto.c: 123:     lcdCommand(0xC0);
  2987  001442  0EC0               	movlw	192
  2988  001444  EC78  F012         	call	_lcdCommand
  2989                           
  2990                           ;posto.c: 124:     lcdData('R');
  2991  001448  0E52               	movlw	82
  2992  00144A  EC7A  F014         	call	_lcdData
  2993                           
  2994                           ;posto.c: 125:     lcdData('$');
  2995  00144E  0E24               	movlw	36
  2996  001450  EC7A  F014         	call	_lcdData
  2997                           
  2998                           ;posto.c: 126:     lcdData(((preco / 10000) % 10) + 48);
  2999  001454  0E27               	movlw	39
  3000  001456  6E04               	movwf	(___lwdiv@divisor+1)^0,c
  3001  001458  0E10               	movlw	16
  3002  00145A  6E03               	movwf	___lwdiv@divisor^0,c
  3003  00145C  C011  F001         	movff	posAbastece@preco,___lwdiv@dividend
  3004  001460  C012  F002         	movff	posAbastece@preco+1,___lwdiv@dividend+1
  3005  001464  ECF3  F012         	call	___lwdiv	;wreg free
  3006  001468  C001  F008         	movff	?___lwdiv,___lwmod@dividend
  3007  00146C  C002  F009         	movff	?___lwdiv+1,___lwmod@dividend+1
  3008  001470  0E00               	movlw	0
  3009  001472  6E0B               	movwf	(___lwmod@divisor+1)^0,c
  3010  001474  0E0A               	movlw	10
  3011  001476  6E0A               	movwf	___lwmod@divisor^0,c
  3012  001478  EC98  F013         	call	___lwmod	;wreg free
  3013  00147C  5008               	movf	?___lwmod^0,w,c
  3014  00147E  0F30               	addlw	48
  3015  001480  EC7A  F014         	call	_lcdData
  3016                           
  3017                           ;posto.c: 127:     lcdData(((preco / 1000) % 10) + 48);
  3018  001484  0E03               	movlw	3
  3019  001486  6E04               	movwf	(___lwdiv@divisor+1)^0,c
  3020  001488  0EE8               	movlw	232
  3021  00148A  6E03               	movwf	___lwdiv@divisor^0,c
  3022  00148C  C011  F001         	movff	posAbastece@preco,___lwdiv@dividend
  3023  001490  C012  F002         	movff	posAbastece@preco+1,___lwdiv@dividend+1
  3024  001494  ECF3  F012         	call	___lwdiv	;wreg free
  3025  001498  C001  F008         	movff	?___lwdiv,___lwmod@dividend
  3026  00149C  C002  F009         	movff	?___lwdiv+1,___lwmod@dividend+1
  3027  0014A0  0E00               	movlw	0
  3028  0014A2  6E0B               	movwf	(___lwmod@divisor+1)^0,c
  3029  0014A4  0E0A               	movlw	10
  3030  0014A6  6E0A               	movwf	___lwmod@divisor^0,c
  3031  0014A8  EC98  F013         	call	___lwmod	;wreg free
  3032  0014AC  5008               	movf	?___lwmod^0,w,c
  3033  0014AE  0F30               	addlw	48
  3034  0014B0  EC7A  F014         	call	_lcdData
  3035                           
  3036                           ;posto.c: 128:     lcdData(((preco / 100) % 10) + 48);
  3037  0014B4  0E00               	movlw	0
  3038  0014B6  6E04               	movwf	(___lwdiv@divisor+1)^0,c
  3039  0014B8  0E64               	movlw	100
  3040  0014BA  6E03               	movwf	___lwdiv@divisor^0,c
  3041  0014BC  C011  F001         	movff	posAbastece@preco,___lwdiv@dividend
  3042  0014C0  C012  F002         	movff	posAbastece@preco+1,___lwdiv@dividend+1
  3043  0014C4  ECF3  F012         	call	___lwdiv	;wreg free
  3044  0014C8  C001  F008         	movff	?___lwdiv,___lwmod@dividend
  3045  0014CC  C002  F009         	movff	?___lwdiv+1,___lwmod@dividend+1
  3046  0014D0  0E00               	movlw	0
  3047  0014D2  6E0B               	movwf	(___lwmod@divisor+1)^0,c
  3048  0014D4  0E0A               	movlw	10
  3049  0014D6  6E0A               	movwf	___lwmod@divisor^0,c
  3050  0014D8  EC98  F013         	call	___lwmod	;wreg free
  3051  0014DC  5008               	movf	?___lwmod^0,w,c
  3052  0014DE  0F30               	addlw	48
  3053  0014E0  EC7A  F014         	call	_lcdData
  3054                           
  3055                           ;posto.c: 129:     lcdData(((preco / 10) % 10) + 48);
  3056  0014E4  0E00               	movlw	0
  3057  0014E6  6E04               	movwf	(___lwdiv@divisor+1)^0,c
  3058  0014E8  0E0A               	movlw	10
  3059  0014EA  6E03               	movwf	___lwdiv@divisor^0,c
  3060  0014EC  C011  F001         	movff	posAbastece@preco,___lwdiv@dividend
  3061  0014F0  C012  F002         	movff	posAbastece@preco+1,___lwdiv@dividend+1
  3062  0014F4  ECF3  F012         	call	___lwdiv	;wreg free
  3063  0014F8  C001  F008         	movff	?___lwdiv,___lwmod@dividend
  3064  0014FC  C002  F009         	movff	?___lwdiv+1,___lwmod@dividend+1
  3065  001500  0E00               	movlw	0
  3066  001502  6E0B               	movwf	(___lwmod@divisor+1)^0,c
  3067  001504  0E0A               	movlw	10
  3068  001506  6E0A               	movwf	___lwmod@divisor^0,c
  3069  001508  EC98  F013         	call	___lwmod	;wreg free
  3070  00150C  5008               	movf	?___lwmod^0,w,c
  3071  00150E  0F30               	addlw	48
  3072  001510  EC7A  F014         	call	_lcdData
  3073                           
  3074                           ;posto.c: 130:     lcdData(',');
  3075  001514  0E2C               	movlw	44
  3076  001516  EC7A  F014         	call	_lcdData
  3077                           
  3078                           ;posto.c: 131:     lcdData(((preco / 1) % 10) + 48);
  3079  00151A  C011  F008         	movff	posAbastece@preco,___lwmod@dividend
  3080  00151E  C012  F009         	movff	posAbastece@preco+1,___lwmod@dividend+1
  3081  001522  0E00               	movlw	0
  3082  001524  6E0B               	movwf	(___lwmod@divisor+1)^0,c
  3083  001526  0E0A               	movlw	10
  3084  001528  6E0A               	movwf	___lwmod@divisor^0,c
  3085  00152A  EC98  F013         	call	___lwmod	;wreg free
  3086  00152E  5008               	movf	?___lwmod^0,w,c
  3087  001530  0F30               	addlw	48
  3088  001532  EC7A  F014         	call	_lcdData
  3089  001536                     
  3090                           ;posto.c: 132:     lcdData(((preco * 10) % 10) + 48);
  3091  001536  C011  F001         	movff	posAbastece@preco,___wmul@multiplier
  3092  00153A  C012  F002         	movff	posAbastece@preco+1,___wmul@multiplier+1
  3093  00153E  0E00               	movlw	0
  3094  001540  6E04               	movwf	(___wmul@multiplicand+1)^0,c
  3095  001542  0E0A               	movlw	10
  3096  001544  6E03               	movwf	___wmul@multiplicand^0,c
  3097  001546  ECC0  F014         	call	___wmul	;wreg free
  3098  00154A  C001  F008         	movff	?___wmul,___lwmod@dividend
  3099  00154E  C002  F009         	movff	?___wmul+1,___lwmod@dividend+1
  3100  001552  0E00               	movlw	0
  3101  001554  6E0B               	movwf	(___lwmod@divisor+1)^0,c
  3102  001556  0E0A               	movlw	10
  3103  001558  6E0A               	movwf	___lwmod@divisor^0,c
  3104  00155A  EC98  F013         	call	___lwmod	;wreg free
  3105  00155E  5008               	movf	?___lwmod^0,w,c
  3106  001560  0F30               	addlw	48
  3107  001562  EC7A  F014         	call	_lcdData
  3108  001566                     
  3109                           ;posto.c: 134:     lcdCommand(0x90);
  3110  001566  0E90               	movlw	144
  3111  001568  EC78  F012         	call	_lcdCommand
  3112  00156C                     
  3113                           ;posto.c: 135:     for (i = 0; i < 7; i++) {
  3114  00156C  0E00               	movlw	0
  3115  00156E  6E25               	movwf	posAbastece@i^0,c
  3116  001570                     l2585:
  3117                           
  3118                           ;posto.c: 136:         lcdData(totalL[i]);
  3119  001570  0E15               	movlw	low posAbastece@totalL
  3120  001572  2425               	addwf	posAbastece@i^0,w,c
  3121  001574  6ED9               	movwf	fsr2l,c
  3122  001576  6ADA               	clrf	fsr2h,c
  3123  001578  0E00               	movlw	high posAbastece@totalL
  3124  00157A  22DA               	addwfc	fsr2h,f,c
  3125  00157C  50DF               	movf	indf2,w,c
  3126  00157E  EC7A  F014         	call	_lcdData
  3127  001582                     
  3128                           ;posto.c: 137:     }
  3129  001582  2A25               	incf	posAbastece@i^0,f,c
  3130  001584  0E06               	movlw	6
  3131  001586  6425               	cpfsgt	posAbastece@i^0,c
  3132  001588  EFC8  F00A         	goto	u2501
  3133  00158C  EFCA  F00A         	goto	u2500
  3134  001590                     u2501:
  3135  001590  EFB8  F00A         	goto	l2585
  3136  001594                     u2500:
  3137  001594                     
  3138                           ;posto.c: 139:     lcdCommand(0xD0);
  3139  001594  0ED0               	movlw	208
  3140  001596  EC78  F012         	call	_lcdCommand
  3141                           
  3142                           ;posto.c: 140:     lcdData(((litroTotal / 10000) % 10) + 48);
  3143  00159A  0E27               	movlw	39
  3144  00159C  6E04               	movwf	(___lwdiv@divisor+1)^0,c
  3145  00159E  0E10               	movlw	16
  3146  0015A0  6E03               	movwf	___lwdiv@divisor^0,c
  3147  0015A2  C013  F001         	movff	posAbastece@litroTotal,___lwdiv@dividend
  3148  0015A6  C014  F002         	movff	posAbastece@litroTotal+1,___lwdiv@dividend+1
  3149  0015AA  ECF3  F012         	call	___lwdiv	;wreg free
  3150  0015AE  C001  F008         	movff	?___lwdiv,___lwmod@dividend
  3151  0015B2  C002  F009         	movff	?___lwdiv+1,___lwmod@dividend+1
  3152  0015B6  0E00               	movlw	0
  3153  0015B8  6E0B               	movwf	(___lwmod@divisor+1)^0,c
  3154  0015BA  0E0A               	movlw	10
  3155  0015BC  6E0A               	movwf	___lwmod@divisor^0,c
  3156  0015BE  EC98  F013         	call	___lwmod	;wreg free
  3157  0015C2  5008               	movf	?___lwmod^0,w,c
  3158  0015C4  0F30               	addlw	48
  3159  0015C6  EC7A  F014         	call	_lcdData
  3160                           
  3161                           ;posto.c: 141:     lcdData(((litroTotal / 1000) % 10) + 48);
  3162  0015CA  0E03               	movlw	3
  3163  0015CC  6E04               	movwf	(___lwdiv@divisor+1)^0,c
  3164  0015CE  0EE8               	movlw	232
  3165  0015D0  6E03               	movwf	___lwdiv@divisor^0,c
  3166  0015D2  C013  F001         	movff	posAbastece@litroTotal,___lwdiv@dividend
  3167  0015D6  C014  F002         	movff	posAbastece@litroTotal+1,___lwdiv@dividend+1
  3168  0015DA  ECF3  F012         	call	___lwdiv	;wreg free
  3169  0015DE  C001  F008         	movff	?___lwdiv,___lwmod@dividend
  3170  0015E2  C002  F009         	movff	?___lwdiv+1,___lwmod@dividend+1
  3171  0015E6  0E00               	movlw	0
  3172  0015E8  6E0B               	movwf	(___lwmod@divisor+1)^0,c
  3173  0015EA  0E0A               	movlw	10
  3174  0015EC  6E0A               	movwf	___lwmod@divisor^0,c
  3175  0015EE  EC98  F013         	call	___lwmod	;wreg free
  3176  0015F2  5008               	movf	?___lwmod^0,w,c
  3177  0015F4  0F30               	addlw	48
  3178  0015F6  EC7A  F014         	call	_lcdData
  3179                           
  3180                           ;posto.c: 142:     lcdData(((litroTotal / 100) % 10) + 48);
  3181  0015FA  0E00               	movlw	0
  3182  0015FC  6E04               	movwf	(___lwdiv@divisor+1)^0,c
  3183  0015FE  0E64               	movlw	100
  3184  001600  6E03               	movwf	___lwdiv@divisor^0,c
  3185  001602  C013  F001         	movff	posAbastece@litroTotal,___lwdiv@dividend
  3186  001606  C014  F002         	movff	posAbastece@litroTotal+1,___lwdiv@dividend+1
  3187  00160A  ECF3  F012         	call	___lwdiv	;wreg free
  3188  00160E  C001  F008         	movff	?___lwdiv,___lwmod@dividend
  3189  001612  C002  F009         	movff	?___lwdiv+1,___lwmod@dividend+1
  3190  001616  0E00               	movlw	0
  3191  001618  6E0B               	movwf	(___lwmod@divisor+1)^0,c
  3192  00161A  0E0A               	movlw	10
  3193  00161C  6E0A               	movwf	___lwmod@divisor^0,c
  3194  00161E  EC98  F013         	call	___lwmod	;wreg free
  3195  001622  5008               	movf	?___lwmod^0,w,c
  3196  001624  0F30               	addlw	48
  3197  001626  EC7A  F014         	call	_lcdData
  3198                           
  3199                           ;posto.c: 143:     lcdData(((litroTotal / 10) % 10) + 48);
  3200  00162A  0E00               	movlw	0
  3201  00162C  6E04               	movwf	(___lwdiv@divisor+1)^0,c
  3202  00162E  0E0A               	movlw	10
  3203  001630  6E03               	movwf	___lwdiv@divisor^0,c
  3204  001632  C013  F001         	movff	posAbastece@litroTotal,___lwdiv@dividend
  3205  001636  C014  F002         	movff	posAbastece@litroTotal+1,___lwdiv@dividend+1
  3206  00163A  ECF3  F012         	call	___lwdiv	;wreg free
  3207  00163E  C001  F008         	movff	?___lwdiv,___lwmod@dividend
  3208  001642  C002  F009         	movff	?___lwdiv+1,___lwmod@dividend+1
  3209  001646  0E00               	movlw	0
  3210  001648  6E0B               	movwf	(___lwmod@divisor+1)^0,c
  3211  00164A  0E0A               	movlw	10
  3212  00164C  6E0A               	movwf	___lwmod@divisor^0,c
  3213  00164E  EC98  F013         	call	___lwmod	;wreg free
  3214  001652  5008               	movf	?___lwmod^0,w,c
  3215  001654  0F30               	addlw	48
  3216  001656  EC7A  F014         	call	_lcdData
  3217                           
  3218                           ;posto.c: 145:     segundo(10);
  3219  00165A  0E0A               	movlw	10
  3220  00165C  ECA4  F014         	call	_segundo
  3221                           
  3222                           ;posto.c: 147:     lcdCommand(0x01);
  3223  001660  0E01               	movlw	1
  3224  001662  EC78  F012         	call	_lcdCommand
  3225  001666                     
  3226                           ;posto.c: 148:     printf("Apos efetuar o  \npagamento     \n          \nPressione (*)  
      +                           ");
  3227  001666  0E11               	movlw	low STR_2
  3228  001668  6E09               	movwf	printf@msg^0,c
  3229  00166A  0E06               	movlw	high STR_2
  3230  00166C  6E0A               	movwf	(printf@msg+1)^0,c
  3231  00166E  ECB5  F011         	call	_printf	;wreg free
  3232                           
  3233                           ;posto.c: 150:     while (continuar == 0) {
  3234  001672  EF48  F00B         	goto	l2601
  3235  001676                     l2595:
  3236                           
  3237                           ;posto.c: 151:         if (((kpRead()) & (1<<(0)))) {
  3238  001676  EC13  F015         	call	_kpRead	;wreg free
  3239  00167A  A001               	btfss	?_kpRead^0,0,c
  3240  00167C  EF42  F00B         	goto	u2511
  3241  001680  EF44  F00B         	goto	u2510
  3242  001684                     u2511:
  3243  001684  EF46  F00B         	goto	l2599
  3244  001688                     u2510:
  3245  001688                     
  3246                           ;posto.c: 152:             continuar = 1;
  3247  001688  0E01               	movlw	1
  3248  00168A  6E24               	movwf	posAbastece@continuar^0,c
  3249  00168C                     l2599:
  3250                           
  3251                           ;posto.c: 154:         kpDebounce();
  3252  00168C  EC4B  F00F         	call	_kpDebounce	;wreg free
  3253  001690                     l2601:
  3254                           
  3255                           ;posto.c: 150:     while (continuar == 0) {
  3256  001690  5024               	movf	posAbastece@continuar^0,w,c
  3257  001692  B4D8               	btfsc	status,2,c
  3258  001694  EF4E  F00B         	goto	u2521
  3259  001698  EF50  F00B         	goto	u2520
  3260  00169C                     u2521:
  3261  00169C  EF3B  F00B         	goto	l2595
  3262  0016A0                     u2520:
  3263  0016A0                     
  3264                           ;posto.c: 156:     lcdCommand(0x01);
  3265  0016A0  0E01               	movlw	1
  3266  0016A2  EC78  F012         	call	_lcdCommand
  3267                           
  3268                           ;posto.c: 157:     lcdCommand(0x80);
  3269  0016A6  0E80               	movlw	128
  3270  0016A8  EC78  F012         	call	_lcdCommand
  3271  0016AC                     
  3272                           ;posto.c: 158:     printf(" 1 - Gasolina\n 2 - Etanol\n 3 - Diesel\n 4 - G Adtivada");
  3273  0016AC  0E4D               	movlw	low STR_1
  3274  0016AE  6E09               	movwf	printf@msg^0,c
  3275  0016B0  0E06               	movlw	high STR_1
  3276  0016B2  6E0A               	movwf	(printf@msg+1)^0,c
  3277  0016B4  ECB5  F011         	call	_printf	;wreg free
  3278  0016B8  0012               	return		;funcret
  3279  0016BA                     __end_of_posAbastece:
  3280                           	callstack 0
  3281                           
  3282 ;; *************** function _segundo *****************
  3283 ;; Defined at:
  3284 ;;		line 12 in file "delay.c"
  3285 ;; Parameters:    Size  Location     Type
  3286 ;;  s               1    wreg     unsigned char 
  3287 ;; Auto vars:     Size  Location     Type
  3288 ;;  s               1    4[COMRAM] unsigned char 
  3289 ;;  i               1    5[COMRAM] volatile unsigned char 
  3290 ;; Return value:  Size  Location     Type
  3291 ;;                  1    wreg      void 
  3292 ;; Registers used:
  3293 ;;		wreg, status,2, status,0, cstack
  3294 ;; Tracked objects:
  3295 ;;		On entry : 0/0
  3296 ;;		On exit  : 0/0
  3297 ;;		Unchanged: 0/0
  3298 ;; Data sizes:     COMRAM   BANK0   BANK1   BANK2   BANK3   BANK4   BANK5
  3299 ;;      Params:         0       0       0       0       0       0       0
  3300 ;;      Locals:         2       0       0       0       0       0       0
  3301 ;;      Temps:          0       0       0       0       0       0       0
  3302 ;;      Totals:         2       0       0       0       0       0       0
  3303 ;;Total ram usage:        2 bytes
  3304 ;; Hardware stack levels used: 1
  3305 ;; Hardware stack levels required when called: 1
  3306 ;; This function calls:
  3307 ;;		_tempo
  3308 ;; This function is called by:
  3309 ;;		_posAbastece
  3310 ;; This function uses a non-reentrant model
  3311 ;;
  3312                           
  3313                           	psect	text13
  3314  002948                     __ptext13:
  3315                           	callstack 0
  3316  002948                     _segundo:
  3317                           	callstack 27
  3318                           
  3319                           ;incstack = 0
  3320                           ;segundo@s stored from wreg
  3321  002948  6E05               	movwf	segundo@s^0,c
  3322  00294A                     
  3323                           ;delay.c: 13:     volatile unsigned char i;;delay.c: 14:     for(i = 0; i < s; i++){
  3324  00294A  0E00               	movlw	0
  3325  00294C  6E06               	movwf	segundo@i^0,c	;volatile
  3326  00294E  EFB6  F014         	goto	l2313
  3327  002952                     l2309:
  3328                           
  3329                           ;delay.c: 15:         tempo(250);
  3330  002952  0EFA               	movlw	250
  3331  002954  ECCA  F013         	call	_tempo
  3332                           
  3333                           ;delay.c: 16:         tempo(250);
  3334  002958  0EFA               	movlw	250
  3335  00295A  ECCA  F013         	call	_tempo
  3336                           
  3337                           ;delay.c: 17:         tempo(250);
  3338  00295E  0EFA               	movlw	250
  3339  002960  ECCA  F013         	call	_tempo
  3340                           
  3341                           ;delay.c: 18:         tempo(250);
  3342  002964  0EFA               	movlw	250
  3343  002966  ECCA  F013         	call	_tempo
  3344  00296A                     
  3345                           ;delay.c: 19:     }
  3346  00296A  2A06               	incf	segundo@i^0,f,c	;volatile
  3347  00296C                     l2313:
  3348  00296C  5005               	movf	segundo@s^0,w,c
  3349  00296E  5C06               	subwf	segundo@i^0,w,c	;volatile
  3350  002970  A0D8               	btfss	status,0,c
  3351  002972  EFBD  F014         	goto	u2111
  3352  002976  EFBF  F014         	goto	u2110
  3353  00297A                     u2111:
  3354  00297A  EFA9  F014         	goto	l2309
  3355  00297E                     u2110:
  3356  00297E  0012               	return		;funcret
  3357  002980                     __end_of_segundo:
  3358                           	callstack 0
  3359                           
  3360 ;; *************** function _tempo *****************
  3361 ;; Defined at:
  3362 ;;		line 3 in file "delay.c"
  3363 ;; Parameters:    Size  Location     Type
  3364 ;;  ms              1    wreg     unsigned char 
  3365 ;; Auto vars:     Size  Location     Type
  3366 ;;  ms              1    0[COMRAM] unsigned char 
  3367 ;;  k               1    3[COMRAM] volatile unsigned char 
  3368 ;;  j               1    2[COMRAM] volatile unsigned char 
  3369 ;;  i               1    1[COMRAM] volatile unsigned char 
  3370 ;; Return value:  Size  Location     Type
  3371 ;;                  1    wreg      void 
  3372 ;; Registers used:
  3373 ;;		wreg, status,2, status,0
  3374 ;; Tracked objects:
  3375 ;;		On entry : 0/0
  3376 ;;		On exit  : 0/0
  3377 ;;		Unchanged: 0/0
  3378 ;; Data sizes:     COMRAM   BANK0   BANK1   BANK2   BANK3   BANK4   BANK5
  3379 ;;      Params:         0       0       0       0       0       0       0
  3380 ;;      Locals:         4       0       0       0       0       0       0
  3381 ;;      Temps:          0       0       0       0       0       0       0
  3382 ;;      Totals:         4       0       0       0       0       0       0
  3383 ;;Total ram usage:        4 bytes
  3384 ;; Hardware stack levels used: 1
  3385 ;; This function calls:
  3386 ;;		Nothing
  3387 ;; This function is called by:
  3388 ;;		_segundo
  3389 ;;		_ledInicial
  3390 ;;		_mensagemInicial
  3391 ;; This function uses a non-reentrant model
  3392 ;;
  3393                           
  3394                           	psect	text14
  3395  002794                     __ptext14:
  3396                           	callstack 0
  3397  002794                     _tempo:
  3398                           	callstack 29
  3399                           
  3400                           ;incstack = 0
  3401                           ;tempo@ms stored from wreg
  3402  002794  6E01               	movwf	tempo@ms^0,c
  3403  002796                     
  3404                           ;delay.c: 4:     volatile unsigned char i, j, k;;delay.c: 5:     for(i = 0; i < ms; i++)
      +                          {
  3405  002796  0E00               	movlw	0
  3406  002798  6E02               	movwf	tempo@i^0,c	;volatile
  3407  00279A  EFEE  F013         	goto	l2303
  3408  00279E                     l2281:
  3409                           
  3410                           ;delay.c: 6:         for(j = 0; j < 41; j++){
  3411  00279E  0E00               	movlw	0
  3412  0027A0  6E03               	movwf	tempo@j^0,c	;volatile
  3413  0027A2                     l2283:
  3414  0027A2  0E28               	movlw	40
  3415  0027A4  6403               	cpfsgt	tempo@j^0,c	;volatile
  3416  0027A6  EFD7  F013         	goto	u2081
  3417  0027AA  EFD9  F013         	goto	u2080
  3418  0027AE                     u2081:
  3419  0027AE  EFDB  F013         	goto	l2287
  3420  0027B2                     u2080:
  3421  0027B2  EFED  F013         	goto	l2301
  3422  0027B6                     l2287:
  3423                           
  3424                           ;delay.c: 7:             for(k = 0; k < 3; k++);
  3425  0027B6  0E00               	movlw	0
  3426  0027B8  6E04               	movwf	tempo@k^0,c	;volatile
  3427  0027BA                     l2289:
  3428  0027BA  0E02               	movlw	2
  3429  0027BC  6404               	cpfsgt	tempo@k^0,c	;volatile
  3430  0027BE  EFE3  F013         	goto	u2091
  3431  0027C2  EFE5  F013         	goto	u2090
  3432  0027C6                     u2091:
  3433  0027C6  EFE7  F013         	goto	l2293
  3434  0027CA                     u2090:
  3435  0027CA  EFEA  F013         	goto	l2297
  3436  0027CE                     l2293:
  3437  0027CE  2A04               	incf	tempo@k^0,f,c	;volatile
  3438  0027D0  EFDD  F013         	goto	l2289
  3439  0027D4                     l2297:
  3440                           
  3441                           ;delay.c: 8:         }
  3442  0027D4  2A03               	incf	tempo@j^0,f,c	;volatile
  3443  0027D6  EFD1  F013         	goto	l2283
  3444  0027DA                     l2301:
  3445                           
  3446                           ;delay.c: 9:     }
  3447  0027DA  2A02               	incf	tempo@i^0,f,c	;volatile
  3448  0027DC                     l2303:
  3449  0027DC  5001               	movf	tempo@ms^0,w,c
  3450  0027DE  5C02               	subwf	tempo@i^0,w,c	;volatile
  3451  0027E0  A0D8               	btfss	status,0,c
  3452  0027E2  EFF5  F013         	goto	u2101
  3453  0027E6  EFF7  F013         	goto	u2100
  3454  0027EA                     u2101:
  3455  0027EA  EFCF  F013         	goto	l2281
  3456  0027EE                     u2100:
  3457  0027EE  0012               	return		;funcret
  3458  0027F0                     __end_of_tempo:
  3459                           	callstack 0
  3460                           
  3461 ;; *************** function _printf *****************
  3462 ;; Defined at:
  3463 ;;		line 4 in file "stdio.c"
  3464 ;; Parameters:    Size  Location     Type
  3465 ;;  msg             2    8[COMRAM] PTR unsigned char 
  3466 ;;		 -> STR_3(54), STR_2(60), STR_1(54), 
  3467 ;; Auto vars:     Size  Location     Type
  3468 ;;  i               2   14[COMRAM] int 
  3469 ;;  linha           2   12[COMRAM] int 
  3470 ;; Return value:  Size  Location     Type
  3471 ;;                  1    wreg      void 
  3472 ;; Registers used:
  3473 ;;		wreg, status,2, status,0, tblptrl, tblptrh, tblptru, cstack
  3474 ;; Tracked objects:
  3475 ;;		On entry : 0/0
  3476 ;;		On exit  : 0/0
  3477 ;;		Unchanged: 0/0
  3478 ;; Data sizes:     COMRAM   BANK0   BANK1   BANK2   BANK3   BANK4   BANK5
  3479 ;;      Params:         2       0       0       0       0       0       0
  3480 ;;      Locals:         4       0       0       0       0       0       0
  3481 ;;      Temps:          2       0       0       0       0       0       0
  3482 ;;      Totals:         8       0       0       0       0       0       0
  3483 ;;Total ram usage:        8 bytes
  3484 ;; Hardware stack levels used: 1
  3485 ;; Hardware stack levels required when called: 3
  3486 ;; This function calls:
  3487 ;;		_lcdCommand
  3488 ;;		_lcdData
  3489 ;; This function is called by:
  3490 ;;		_mensagemInicial
  3491 ;;		_posAbastece
  3492 ;; This function uses a non-reentrant model
  3493 ;;
  3494                           
  3495                           	psect	text15
  3496  00236A                     __ptext15:
  3497                           	callstack 0
  3498  00236A                     _printf:
  3499                           	callstack 26
  3500  00236A                     
  3501                           ;stdio.c: 5:     int i, linha = 1;
  3502  00236A  0E00               	movlw	0
  3503  00236C  6E0E               	movwf	(printf@linha+1)^0,c
  3504  00236E  0E01               	movlw	1
  3505  002370  6E0D               	movwf	printf@linha^0,c
  3506  002372                     
  3507                           ;stdio.c: 6:     lcdCommand(0x80);
  3508  002372  0E80               	movlw	128
  3509  002374  EC78  F012         	call	_lcdCommand
  3510  002378                     
  3511                           ;stdio.c: 7:     for(i = 0;i < 60;i++) {
  3512  002378  0E00               	movlw	0
  3513  00237A  6E10               	movwf	(printf@i+1)^0,c
  3514  00237C  0E00               	movlw	0
  3515  00237E  6E0F               	movwf	printf@i^0,c
  3516  002380                     l2325:
  3517                           
  3518                           ;stdio.c: 8:         if(msg[i] == '\n'){
  3519  002380  500F               	movf	printf@i^0,w,c
  3520  002382  2409               	addwf	printf@msg^0,w,c
  3521  002384  6E0B               	movwf	??_printf^0,c
  3522  002386  5010               	movf	(printf@i+1)^0,w,c
  3523  002388  200A               	addwfc	(printf@msg+1)^0,w,c
  3524  00238A  6E0C               	movwf	(??_printf+1)^0,c
  3525  00238C  C00B  FFF6         	movff	??_printf,tblptrl
  3526  002390  C00C  FFF7         	movff	??_printf+1,tblptrh
  3527  002394                     	if	0	;tblptru may be non-zero
  3528  002394                     	endif
  3529  002394                     	if	0	;tblptru may be non-zero
  3530  002394                     	endif
  3531  002394  0008               	tblrd		*
  3532  002396  50F5               	movf	tablat,w,c
  3533  002398  0A0A               	xorlw	10
  3534  00239A  A4D8               	btfss	status,2,c
  3535  00239C  EFD2  F011         	goto	u2121
  3536  0023A0  EFD4  F011         	goto	u2120
  3537  0023A4                     u2121:
  3538  0023A4  EF09  F012         	goto	l2351
  3539  0023A8                     u2120:
  3540  0023A8                     
  3541                           ;stdio.c: 9:             i++;
  3542  0023A8  4A0F               	infsnz	printf@i^0,f,c
  3543  0023AA  2A10               	incf	(printf@i+1)^0,f,c
  3544  0023AC                     
  3545                           ;stdio.c: 10:              if(linha == 1){
  3546  0023AC  040D               	decf	printf@linha^0,w,c
  3547  0023AE  100E               	iorwf	(printf@linha+1)^0,w,c
  3548  0023B0  A4D8               	btfss	status,2,c
  3549  0023B2  EFDD  F011         	goto	u2131
  3550  0023B6  EFDF  F011         	goto	u2130
  3551  0023BA                     u2131:
  3552  0023BA  EFE6  F011         	goto	l2335
  3553  0023BE                     u2130:
  3554  0023BE                     
  3555                           ;stdio.c: 11:                 lcdCommand(0xC0);
  3556  0023BE  0EC0               	movlw	192
  3557  0023C0  EC78  F012         	call	_lcdCommand
  3558  0023C4                     l2333:
  3559                           
  3560                           ;stdio.c: 12:                 linha++;
  3561  0023C4  4A0D               	infsnz	printf@linha^0,f,c
  3562  0023C6  2A0E               	incf	(printf@linha+1)^0,f,c
  3563                           
  3564                           ;stdio.c: 13:              }else if(linha == 2){
  3565  0023C8  EF09  F012         	goto	l2351
  3566  0023CC                     l2335:
  3567  0023CC  0E02               	movlw	2
  3568  0023CE  180D               	xorwf	printf@linha^0,w,c
  3569  0023D0  100E               	iorwf	(printf@linha+1)^0,w,c
  3570  0023D2  A4D8               	btfss	status,2,c
  3571  0023D4  EFEE  F011         	goto	u2141
  3572  0023D8  EFF0  F011         	goto	u2140
  3573  0023DC                     u2141:
  3574  0023DC  EFF5  F011         	goto	l2341
  3575  0023E0                     u2140:
  3576  0023E0                     
  3577                           ;stdio.c: 14:                  lcdCommand(0x90);
  3578  0023E0  0E90               	movlw	144
  3579  0023E2  EC78  F012         	call	_lcdCommand
  3580  0023E6  EFE2  F011         	goto	l2333
  3581  0023EA                     l2341:
  3582  0023EA  0E03               	movlw	3
  3583  0023EC  180D               	xorwf	printf@linha^0,w,c
  3584  0023EE  100E               	iorwf	(printf@linha+1)^0,w,c
  3585  0023F0  A4D8               	btfss	status,2,c
  3586  0023F2  EFFD  F011         	goto	u2151
  3587  0023F6  EFFF  F011         	goto	u2150
  3588  0023FA                     u2151:
  3589  0023FA  EF04  F012         	goto	l2347
  3590  0023FE                     u2150:
  3591  0023FE                     
  3592                           ;stdio.c: 17:                  lcdCommand(0xD0);
  3593  0023FE  0ED0               	movlw	208
  3594  002400  EC78  F012         	call	_lcdCommand
  3595  002404  EFE2  F011         	goto	l2333
  3596  002408                     l2347:
  3597                           
  3598                           ;stdio.c: 20:                  lcdCommand(0xD0);
  3599  002408  0ED0               	movlw	208
  3600  00240A  EC78  F012         	call	_lcdCommand
  3601  00240E  EFE2  F011         	goto	l2333
  3602  002412                     l2351:
  3603                           
  3604                           ;stdio.c: 24:         lcdData(msg[i]);
  3605  002412  500F               	movf	printf@i^0,w,c
  3606  002414  2409               	addwf	printf@msg^0,w,c
  3607  002416  6E0B               	movwf	??_printf^0,c
  3608  002418  5010               	movf	(printf@i+1)^0,w,c
  3609  00241A  200A               	addwfc	(printf@msg+1)^0,w,c
  3610  00241C  6E0C               	movwf	(??_printf+1)^0,c
  3611  00241E  C00B  FFF6         	movff	??_printf,tblptrl
  3612  002422  C00C  FFF7         	movff	??_printf+1,tblptrh
  3613  002426                     	if	0	;tblptru may be non-zero
  3614  002426                     	endif
  3615  002426                     	if	0	;tblptru may be non-zero
  3616  002426                     	endif
  3617  002426  0008               	tblrd		*
  3618  002428  50F5               	movf	tablat,w,c
  3619  00242A  EC7A  F014         	call	_lcdData
  3620  00242E                     
  3621                           ;stdio.c: 25:     }
  3622  00242E  4A0F               	infsnz	printf@i^0,f,c
  3623  002430  2A10               	incf	(printf@i+1)^0,f,c
  3624  002432  BE10               	btfsc	(printf@i+1)^0,7,c
  3625  002434  EF25  F012         	goto	u2161
  3626  002438  5010               	movf	(printf@i+1)^0,w,c
  3627  00243A  E109               	bnz	u2160
  3628  00243C  0E3C               	movlw	60
  3629  00243E  5C0F               	subwf	printf@i^0,w,c
  3630  002440  A0D8               	btfss	status,0,c
  3631  002442  EF25  F012         	goto	u2161
  3632  002446  EF27  F012         	goto	u2160
  3633  00244A                     u2161:
  3634  00244A  EFC0  F011         	goto	l2325
  3635  00244E                     u2160:
  3636  00244E  0012               	return		;funcret
  3637  002450                     __end_of_printf:
  3638                           	callstack 0
  3639                           
  3640 ;; *************** function _lcdData *****************
  3641 ;; Defined at:
  3642 ;;		line 74 in file "lcd.c"
  3643 ;; Parameters:    Size  Location     Type
  3644 ;;  valor           1    wreg     unsigned char 
  3645 ;; Auto vars:     Size  Location     Type
  3646 ;;  valor           1    6[COMRAM] unsigned char 
  3647 ;;  old_D           1    7[COMRAM] unsigned char 
  3648 ;; Return value:  Size  Location     Type
  3649 ;;                  1    wreg      void 
  3650 ;; Registers used:
  3651 ;;		wreg, status,2, status,0, cstack
  3652 ;; Tracked objects:
  3653 ;;		On entry : 0/0
  3654 ;;		On exit  : 0/0
  3655 ;;		Unchanged: 0/0
  3656 ;; Data sizes:     COMRAM   BANK0   BANK1   BANK2   BANK3   BANK4   BANK5
  3657 ;;      Params:         0       0       0       0       0       0       0
  3658 ;;      Locals:         2       0       0       0       0       0       0
  3659 ;;      Temps:          0       0       0       0       0       0       0
  3660 ;;      Totals:         2       0       0       0       0       0       0
  3661 ;;Total ram usage:        2 bytes
  3662 ;; Hardware stack levels used: 1
  3663 ;; Hardware stack levels required when called: 1
  3664 ;; This function calls:
  3665 ;;		_Delay40us
  3666 ;;		_digitalWrite
  3667 ;; This function is called by:
  3668 ;;		_printf
  3669 ;;		_mensagemInicial
  3670 ;;		_abastece
  3671 ;;		_posAbastece
  3672 ;; This function uses a non-reentrant model
  3673 ;;
  3674                           
  3675                           	psect	text16
  3676  0028F4                     __ptext16:
  3677                           	callstack 0
  3678  0028F4                     _lcdData:
  3679                           	callstack 27
  3680                           
  3681                           ;incstack = 0
  3682                           ;lcdData@valor stored from wreg
  3683  0028F4  6E07               	movwf	lcdData@valor^0,c
  3684  0028F6                     
  3685                           ;lcd.c: 74: void lcdData(unsigned char valor);lcd.c: 75: {;lcd.c: 77:     unsigned char 
      +                          old_D;;lcd.c: 78:     old_D = PORTD;
  3686  0028F6  CF83 F008          	movff	3971,lcdData@old_D	;volatile
  3687  0028FA                     
  3688                           ;lcd.c: 80:     TRISD = 0x00;
  3689  0028FA  0E00               	movlw	0
  3690  0028FC  6E95               	movwf	149,c	;volatile
  3691  0028FE                     
  3692                           ;lcd.c: 81:  digitalWrite(PIN_E2, 1);
  3693  0028FE  0E00               	movlw	0
  3694  002900  6E02               	movwf	(digitalWrite@pin+1)^0,c
  3695  002902  0E22               	movlw	34
  3696  002904  6E01               	movwf	digitalWrite@pin^0,c
  3697  002906  0E00               	movlw	0
  3698  002908  6E04               	movwf	(digitalWrite@value+1)^0,c
  3699  00290A  0E01               	movlw	1
  3700  00290C  6E03               	movwf	digitalWrite@value^0,c
  3701  00290E  EC84  F00C         	call	_digitalWrite	;wreg free
  3702  002912                     
  3703                           ;lcd.c: 83:  PORTD = valor;
  3704  002912  C007  FF83         	movff	lcdData@valor,3971	;volatile
  3705  002916                     
  3706                           ;lcd.c: 85:     digitalWrite(PIN_E1, 1);
  3707  002916  0E00               	movlw	0
  3708  002918  6E02               	movwf	(digitalWrite@pin+1)^0,c
  3709  00291A  0E21               	movlw	33
  3710  00291C  6E01               	movwf	digitalWrite@pin^0,c
  3711  00291E  0E00               	movlw	0
  3712  002920  6E04               	movwf	(digitalWrite@value+1)^0,c
  3713  002922  0E01               	movlw	1
  3714  002924  6E03               	movwf	digitalWrite@value^0,c
  3715  002926  EC84  F00C         	call	_digitalWrite	;wreg free
  3716  00292A                     
  3717                           ;lcd.c: 86:  digitalWrite(PIN_E1, 0);
  3718  00292A  0E00               	movlw	0
  3719  00292C  6E02               	movwf	(digitalWrite@pin+1)^0,c
  3720  00292E  0E21               	movlw	33
  3721  002930  6E01               	movwf	digitalWrite@pin^0,c
  3722  002932  0E00               	movlw	0
  3723  002934  6E04               	movwf	(digitalWrite@value+1)^0,c
  3724  002936  0E00               	movlw	0
  3725  002938  6E03               	movwf	digitalWrite@value^0,c
  3726  00293A  EC84  F00C         	call	_digitalWrite	;wreg free
  3727  00293E                     
  3728                           ;lcd.c: 88:     PORTD= old_D;
  3729  00293E  C008  FF83         	movff	lcdData@old_D,3971	;volatile
  3730  002942                     
  3731                           ;lcd.c: 90:  Delay40us();
  3732  002942  ECED  F014         	call	_Delay40us	;wreg free
  3733  002946  0012               	return		;funcret
  3734  002948                     __end_of_lcdData:
  3735                           	callstack 0
  3736                           
  3737 ;; *************** function _lcdCommand *****************
  3738 ;; Defined at:
  3739 ;;		line 48 in file "lcd.c"
  3740 ;; Parameters:    Size  Location     Type
  3741 ;;  cmd             1    wreg     unsigned char 
  3742 ;; Auto vars:     Size  Location     Type
  3743 ;;  cmd             1    7[COMRAM] unsigned char 
  3744 ;;  old_D           1    6[COMRAM] unsigned char 
  3745 ;; Return value:  Size  Location     Type
  3746 ;;                  1    wreg      void 
  3747 ;; Registers used:
  3748 ;;		wreg, status,2, status,0, cstack
  3749 ;; Tracked objects:
  3750 ;;		On entry : 0/0
  3751 ;;		On exit  : 0/0
  3752 ;;		Unchanged: 0/0
  3753 ;; Data sizes:     COMRAM   BANK0   BANK1   BANK2   BANK3   BANK4   BANK5
  3754 ;;      Params:         0       0       0       0       0       0       0
  3755 ;;      Locals:         2       0       0       0       0       0       0
  3756 ;;      Temps:          0       0       0       0       0       0       0
  3757 ;;      Totals:         2       0       0       0       0       0       0
  3758 ;;Total ram usage:        2 bytes
  3759 ;; Hardware stack levels used: 1
  3760 ;; Hardware stack levels required when called: 2
  3761 ;; This function calls:
  3762 ;;		_Delay2ms
  3763 ;;		_Delay40us
  3764 ;;		_digitalWrite
  3765 ;; This function is called by:
  3766 ;;		_lcdInit
  3767 ;;		_printf
  3768 ;;		_mensagemInicial
  3769 ;;		_abastece
  3770 ;;		_posAbastece
  3771 ;; This function uses a non-reentrant model
  3772 ;;
  3773                           
  3774                           	psect	text17
  3775  0024F0                     __ptext17:
  3776                           	callstack 0
  3777  0024F0                     _lcdCommand:
  3778                           	callstack 26
  3779                           
  3780                           ;incstack = 0
  3781                           ;lcdCommand@cmd stored from wreg
  3782  0024F0  6E08               	movwf	lcdCommand@cmd^0,c
  3783  0024F2                     
  3784                           ;lcd.c: 48: void lcdCommand(unsigned char cmd);lcd.c: 49: {;lcd.c: 50:     unsigned char
      +                           old_D;;lcd.c: 51:     old_D = PORTD;
  3785  0024F2  CF83 F007          	movff	3971,lcdCommand@old_D	;volatile
  3786  0024F6                     
  3787                           ;lcd.c: 54:     TRISD = 0x00;
  3788  0024F6  0E00               	movlw	0
  3789  0024F8  6E95               	movwf	149,c	;volatile
  3790  0024FA                     
  3791                           ;lcd.c: 56:  digitalWrite(PIN_E2, 0);
  3792  0024FA  0E00               	movlw	0
  3793  0024FC  6E02               	movwf	(digitalWrite@pin+1)^0,c
  3794  0024FE  0E22               	movlw	34
  3795  002500  6E01               	movwf	digitalWrite@pin^0,c
  3796  002502  0E00               	movlw	0
  3797  002504  6E04               	movwf	(digitalWrite@value+1)^0,c
  3798  002506  0E00               	movlw	0
  3799  002508  6E03               	movwf	digitalWrite@value^0,c
  3800  00250A  EC84  F00C         	call	_digitalWrite	;wreg free
  3801  00250E                     
  3802                           ;lcd.c: 57:  PORTD = cmd;
  3803  00250E  C008  FF83         	movff	lcdCommand@cmd,3971	;volatile
  3804  002512                     
  3805                           ;lcd.c: 59:     digitalWrite(PIN_E1, 1);
  3806  002512  0E00               	movlw	0
  3807  002514  6E02               	movwf	(digitalWrite@pin+1)^0,c
  3808  002516  0E21               	movlw	33
  3809  002518  6E01               	movwf	digitalWrite@pin^0,c
  3810  00251A  0E00               	movlw	0
  3811  00251C  6E04               	movwf	(digitalWrite@value+1)^0,c
  3812  00251E  0E01               	movlw	1
  3813  002520  6E03               	movwf	digitalWrite@value^0,c
  3814  002522  EC84  F00C         	call	_digitalWrite	;wreg free
  3815  002526                     
  3816                           ;lcd.c: 60:  digitalWrite(PIN_E1, 0);
  3817  002526  0E00               	movlw	0
  3818  002528  6E02               	movwf	(digitalWrite@pin+1)^0,c
  3819  00252A  0E21               	movlw	33
  3820  00252C  6E01               	movwf	digitalWrite@pin^0,c
  3821  00252E  0E00               	movlw	0
  3822  002530  6E04               	movwf	(digitalWrite@value+1)^0,c
  3823  002532  0E00               	movlw	0
  3824  002534  6E03               	movwf	digitalWrite@value^0,c
  3825  002536  EC84  F00C         	call	_digitalWrite	;wreg free
  3826  00253A                     
  3827                           ;lcd.c: 63:     PORTD= old_D;
  3828  00253A  C007  FF83         	movff	lcdCommand@old_D,3971	;volatile
  3829  00253E                     
  3830                           ;lcd.c: 65:     if((cmd == 0x02)||(cmd == 0x01)){
  3831  00253E  0E02               	movlw	2
  3832  002540  1808               	xorwf	lcdCommand@cmd^0,w,c
  3833  002542  B4D8               	btfsc	status,2,c
  3834  002544  EFA6  F012         	goto	u2061
  3835  002548  EFA8  F012         	goto	u2060
  3836  00254C                     u2061:
  3837  00254C  EFB0  F012         	goto	l2259
  3838  002550                     u2060:
  3839  002550  0408               	decf	lcdCommand@cmd^0,w,c
  3840  002552  A4D8               	btfss	status,2,c
  3841  002554  EFAE  F012         	goto	u2071
  3842  002558  EFB0  F012         	goto	u2070
  3843  00255C                     u2071:
  3844  00255C  EFB4  F012         	goto	l2261
  3845  002560                     u2070:
  3846  002560                     l2259:
  3847                           
  3848                           ;lcd.c: 66:        Delay2ms();
  3849  002560  ECD3  F014         	call	_Delay2ms	;wreg free
  3850                           
  3851                           ;lcd.c: 67:     }else{
  3852  002564  EFB6  F012         	goto	l172
  3853  002568                     l2261:
  3854                           
  3855                           ;lcd.c: 68:     Delay40us();
  3856  002568  ECED  F014         	call	_Delay40us	;wreg free
  3857  00256C                     l172:
  3858  00256C  0012               	return		;funcret
  3859  00256E                     __end_of_lcdCommand:
  3860                           	callstack 0
  3861                           
  3862 ;; *************** function _digitalWrite *****************
  3863 ;; Defined at:
  3864 ;;		line 14 in file "io.c"
  3865 ;; Parameters:    Size  Location     Type
  3866 ;;  pin             2    0[COMRAM] int 
  3867 ;;  value           2    2[COMRAM] int 
  3868 ;; Auto vars:     Size  Location     Type
  3869 ;;		None
  3870 ;; Return value:  Size  Location     Type
  3871 ;;                  1    wreg      void 
  3872 ;; Registers used:
  3873 ;;		wreg, status,2, status,0
  3874 ;; Tracked objects:
  3875 ;;		On entry : 0/0
  3876 ;;		On exit  : 0/0
  3877 ;;		Unchanged: 0/0
  3878 ;; Data sizes:     COMRAM   BANK0   BANK1   BANK2   BANK3   BANK4   BANK5
  3879 ;;      Params:         4       0       0       0       0       0       0
  3880 ;;      Locals:         0       0       0       0       0       0       0
  3881 ;;      Temps:          2       0       0       0       0       0       0
  3882 ;;      Totals:         6       0       0       0       0       0       0
  3883 ;;Total ram usage:        6 bytes
  3884 ;; Hardware stack levels used: 1
  3885 ;; This function calls:
  3886 ;;		Nothing
  3887 ;; This function is called by:
  3888 ;;		_lcdCommand
  3889 ;;		_lcdData
  3890 ;;		_ssdUpdate
  3891 ;; This function uses a non-reentrant model
  3892 ;;
  3893                           
  3894                           	psect	text18
  3895  001908                     __ptext18:
  3896                           	callstack 0
  3897  001908                     _digitalWrite:
  3898                           	callstack 29
  3899  001908                     
  3900                           ;io.c: 16:     if(pin <8){
  3901  001908  BE02               	btfsc	(digitalWrite@pin+1)^0,7,c
  3902  00190A  EF92  F00C         	goto	u1850
  3903  00190E  5002               	movf	(digitalWrite@pin+1)^0,w,c
  3904  001910  E107               	bnz	u1851
  3905  001912  0E08               	movlw	8
  3906  001914  5C01               	subwf	digitalWrite@pin^0,w,c
  3907  001916  B0D8               	btfsc	status,0,c
  3908  001918  EF90  F00C         	goto	u1851
  3909  00191C  EF92  F00C         	goto	u1850
  3910  001920                     u1851:
  3911  001920  EFBC  F00C         	goto	l2197
  3912  001924                     u1850:
  3913  001924                     
  3914                           ;io.c: 17:         if (value){ ((PORTA) |= (1<<(pin)));}
  3915  001924  5003               	movf	digitalWrite@value^0,w,c
  3916  001926  1004               	iorwf	(digitalWrite@value+1)^0,w,c
  3917  001928  B4D8               	btfsc	status,2,c
  3918  00192A  EF99  F00C         	goto	u1861
  3919  00192E  EF9B  F00C         	goto	u1860
  3920  001932                     u1861:
  3921  001932  EFAB  F00C         	goto	l2195
  3922  001936                     u1860:
  3923  001936  C001  F005         	movff	digitalWrite@pin,??_digitalWrite
  3924  00193A  0E01               	movlw	1
  3925  00193C  6E06               	movwf	(??_digitalWrite+1)^0,c
  3926  00193E  2A05               	incf	??_digitalWrite^0,f,c
  3927  001940  EFA4  F00C         	goto	u1874
  3928  001944                     u1875:
  3929  001944  90D8               	bcf	status,0,c
  3930  001946  3606               	rlcf	(??_digitalWrite+1)^0,f,c
  3931  001948                     u1874:
  3932  001948  2E05               	decfsz	??_digitalWrite^0,f,c
  3933  00194A  EFA2  F00C         	goto	u1875
  3934  00194E  5006               	movf	(??_digitalWrite+1)^0,w,c
  3935  001950  1280               	iorwf	128,f,c	;volatile
  3936  001952  EFAA  F00D         	goto	l77
  3937  001956                     l2195:
  3938  001956  C001  F005         	movff	digitalWrite@pin,??_digitalWrite
  3939  00195A  0E01               	movlw	1
  3940  00195C  6E06               	movwf	(??_digitalWrite+1)^0,c
  3941  00195E  2A05               	incf	??_digitalWrite^0,f,c
  3942  001960  EFB4  F00C         	goto	u1884
  3943  001964                     u1885:
  3944  001964  90D8               	bcf	status,0,c
  3945  001966  3606               	rlcf	(??_digitalWrite+1)^0,f,c
  3946  001968                     u1884:
  3947  001968  2E05               	decfsz	??_digitalWrite^0,f,c
  3948  00196A  EFB2  F00C         	goto	u1885
  3949  00196E  5006               	movf	(??_digitalWrite+1)^0,w,c
  3950  001970  0AFF               	xorlw	255
  3951  001972  1680               	andwf	128,f,c	;volatile
  3952  001974  EFAA  F00D         	goto	l77
  3953  001978                     l2197:
  3954  001978  BE02               	btfsc	(digitalWrite@pin+1)^0,7,c
  3955  00197A  EFCA  F00C         	goto	u1890
  3956  00197E  5002               	movf	(digitalWrite@pin+1)^0,w,c
  3957  001980  E107               	bnz	u1891
  3958  001982  0E10               	movlw	16
  3959  001984  5C01               	subwf	digitalWrite@pin^0,w,c
  3960  001986  B0D8               	btfsc	status,0,c
  3961  001988  EFC8  F00C         	goto	u1891
  3962  00198C  EFCA  F00C         	goto	u1890
  3963  001990                     u1891:
  3964  001990  EFF8  F00C         	goto	l2205
  3965  001994                     u1890:
  3966  001994                     
  3967                           ;io.c: 20:         pin -=8;
  3968  001994  0EF8               	movlw	248
  3969  001996  2601               	addwf	digitalWrite@pin^0,f,c
  3970  001998  0EFF               	movlw	255
  3971  00199A  2202               	addwfc	(digitalWrite@pin+1)^0,f,c
  3972                           
  3973                           ;io.c: 21:         if (value){ ((PORTB) |= (1<<(pin)));}
  3974  00199C  5003               	movf	digitalWrite@value^0,w,c
  3975  00199E  1004               	iorwf	(digitalWrite@value+1)^0,w,c
  3976  0019A0  B4D8               	btfsc	status,2,c
  3977  0019A2  EFD5  F00C         	goto	u1901
  3978  0019A6  EFD7  F00C         	goto	u1900
  3979  0019AA                     u1901:
  3980  0019AA  EFE7  F00C         	goto	l2203
  3981  0019AE                     u1900:
  3982  0019AE  C001  F005         	movff	digitalWrite@pin,??_digitalWrite
  3983  0019B2  0E01               	movlw	1
  3984  0019B4  6E06               	movwf	(??_digitalWrite+1)^0,c
  3985  0019B6  2A05               	incf	??_digitalWrite^0,f,c
  3986  0019B8  EFE0  F00C         	goto	u1914
  3987  0019BC                     u1915:
  3988  0019BC  90D8               	bcf	status,0,c
  3989  0019BE  3606               	rlcf	(??_digitalWrite+1)^0,f,c
  3990  0019C0                     u1914:
  3991  0019C0  2E05               	decfsz	??_digitalWrite^0,f,c
  3992  0019C2  EFDE  F00C         	goto	u1915
  3993  0019C6  5006               	movf	(??_digitalWrite+1)^0,w,c
  3994  0019C8  1281               	iorwf	129,f,c	;volatile
  3995  0019CA  EFAA  F00D         	goto	l77
  3996  0019CE                     l2203:
  3997  0019CE  C001  F005         	movff	digitalWrite@pin,??_digitalWrite
  3998  0019D2  0E01               	movlw	1
  3999  0019D4  6E06               	movwf	(??_digitalWrite+1)^0,c
  4000  0019D6  2A05               	incf	??_digitalWrite^0,f,c
  4001  0019D8  EFF0  F00C         	goto	u1924
  4002  0019DC                     u1925:
  4003  0019DC  90D8               	bcf	status,0,c
  4004  0019DE  3606               	rlcf	(??_digitalWrite+1)^0,f,c
  4005  0019E0                     u1924:
  4006  0019E0  2E05               	decfsz	??_digitalWrite^0,f,c
  4007  0019E2  EFEE  F00C         	goto	u1925
  4008  0019E6  5006               	movf	(??_digitalWrite+1)^0,w,c
  4009  0019E8  0AFF               	xorlw	255
  4010  0019EA  1681               	andwf	129,f,c	;volatile
  4011  0019EC  EFAA  F00D         	goto	l77
  4012  0019F0                     l2205:
  4013  0019F0  BE02               	btfsc	(digitalWrite@pin+1)^0,7,c
  4014  0019F2  EF06  F00D         	goto	u1930
  4015  0019F6  5002               	movf	(digitalWrite@pin+1)^0,w,c
  4016  0019F8  E107               	bnz	u1931
  4017  0019FA  0E18               	movlw	24
  4018  0019FC  5C01               	subwf	digitalWrite@pin^0,w,c
  4019  0019FE  B0D8               	btfsc	status,0,c
  4020  001A00  EF04  F00D         	goto	u1931
  4021  001A04  EF06  F00D         	goto	u1930
  4022  001A08                     u1931:
  4023  001A08  EF34  F00D         	goto	l2213
  4024  001A0C                     u1930:
  4025  001A0C                     
  4026                           ;io.c: 24:         pin -=16;
  4027  001A0C  0EF0               	movlw	240
  4028  001A0E  2601               	addwf	digitalWrite@pin^0,f,c
  4029  001A10  0EFF               	movlw	255
  4030  001A12  2202               	addwfc	(digitalWrite@pin+1)^0,f,c
  4031                           
  4032                           ;io.c: 25:         if (value){ ((PORTC) |= (1<<(pin)));}
  4033  001A14  5003               	movf	digitalWrite@value^0,w,c
  4034  001A16  1004               	iorwf	(digitalWrite@value+1)^0,w,c
  4035  001A18  B4D8               	btfsc	status,2,c
  4036  001A1A  EF11  F00D         	goto	u1941
  4037  001A1E  EF13  F00D         	goto	u1940
  4038  001A22                     u1941:
  4039  001A22  EF23  F00D         	goto	l2211
  4040  001A26                     u1940:
  4041  001A26  C001  F005         	movff	digitalWrite@pin,??_digitalWrite
  4042  001A2A  0E01               	movlw	1
  4043  001A2C  6E06               	movwf	(??_digitalWrite+1)^0,c
  4044  001A2E  2A05               	incf	??_digitalWrite^0,f,c
  4045  001A30  EF1C  F00D         	goto	u1954
  4046  001A34                     u1955:
  4047  001A34  90D8               	bcf	status,0,c
  4048  001A36  3606               	rlcf	(??_digitalWrite+1)^0,f,c
  4049  001A38                     u1954:
  4050  001A38  2E05               	decfsz	??_digitalWrite^0,f,c
  4051  001A3A  EF1A  F00D         	goto	u1955
  4052  001A3E  5006               	movf	(??_digitalWrite+1)^0,w,c
  4053  001A40  1282               	iorwf	130,f,c	;volatile
  4054  001A42  EFAA  F00D         	goto	l77
  4055  001A46                     l2211:
  4056  001A46  C001  F005         	movff	digitalWrite@pin,??_digitalWrite
  4057  001A4A  0E01               	movlw	1
  4058  001A4C  6E06               	movwf	(??_digitalWrite+1)^0,c
  4059  001A4E  2A05               	incf	??_digitalWrite^0,f,c
  4060  001A50  EF2C  F00D         	goto	u1964
  4061  001A54                     u1965:
  4062  001A54  90D8               	bcf	status,0,c
  4063  001A56  3606               	rlcf	(??_digitalWrite+1)^0,f,c
  4064  001A58                     u1964:
  4065  001A58  2E05               	decfsz	??_digitalWrite^0,f,c
  4066  001A5A  EF2A  F00D         	goto	u1965
  4067  001A5E  5006               	movf	(??_digitalWrite+1)^0,w,c
  4068  001A60  0AFF               	xorlw	255
  4069  001A62  1682               	andwf	130,f,c	;volatile
  4070  001A64  EFAA  F00D         	goto	l77
  4071  001A68                     l2213:
  4072  001A68  BE02               	btfsc	(digitalWrite@pin+1)^0,7,c
  4073  001A6A  EF42  F00D         	goto	u1970
  4074  001A6E  5002               	movf	(digitalWrite@pin+1)^0,w,c
  4075  001A70  E107               	bnz	u1971
  4076  001A72  0E20               	movlw	32
  4077  001A74  5C01               	subwf	digitalWrite@pin^0,w,c
  4078  001A76  B0D8               	btfsc	status,0,c
  4079  001A78  EF40  F00D         	goto	u1971
  4080  001A7C  EF42  F00D         	goto	u1970
  4081  001A80                     u1971:
  4082  001A80  EF70  F00D         	goto	l2221
  4083  001A84                     u1970:
  4084  001A84                     
  4085                           ;io.c: 28:         pin -=24;
  4086  001A84  0EE8               	movlw	232
  4087  001A86  2601               	addwf	digitalWrite@pin^0,f,c
  4088  001A88  0EFF               	movlw	255
  4089  001A8A  2202               	addwfc	(digitalWrite@pin+1)^0,f,c
  4090                           
  4091                           ;io.c: 29:         if (value){ ((PORTD) |= (1<<(pin)));}
  4092  001A8C  5003               	movf	digitalWrite@value^0,w,c
  4093  001A8E  1004               	iorwf	(digitalWrite@value+1)^0,w,c
  4094  001A90  B4D8               	btfsc	status,2,c
  4095  001A92  EF4D  F00D         	goto	u1981
  4096  001A96  EF4F  F00D         	goto	u1980
  4097  001A9A                     u1981:
  4098  001A9A  EF5F  F00D         	goto	l2219
  4099  001A9E                     u1980:
  4100  001A9E  C001  F005         	movff	digitalWrite@pin,??_digitalWrite
  4101  001AA2  0E01               	movlw	1
  4102  001AA4  6E06               	movwf	(??_digitalWrite+1)^0,c
  4103  001AA6  2A05               	incf	??_digitalWrite^0,f,c
  4104  001AA8  EF58  F00D         	goto	u1994
  4105  001AAC                     u1995:
  4106  001AAC  90D8               	bcf	status,0,c
  4107  001AAE  3606               	rlcf	(??_digitalWrite+1)^0,f,c
  4108  001AB0                     u1994:
  4109  001AB0  2E05               	decfsz	??_digitalWrite^0,f,c
  4110  001AB2  EF56  F00D         	goto	u1995
  4111  001AB6  5006               	movf	(??_digitalWrite+1)^0,w,c
  4112  001AB8  1283               	iorwf	131,f,c	;volatile
  4113  001ABA  EFAA  F00D         	goto	l77
  4114  001ABE                     l2219:
  4115  001ABE  C001  F005         	movff	digitalWrite@pin,??_digitalWrite
  4116  001AC2  0E01               	movlw	1
  4117  001AC4  6E06               	movwf	(??_digitalWrite+1)^0,c
  4118  001AC6  2A05               	incf	??_digitalWrite^0,f,c
  4119  001AC8  EF68  F00D         	goto	u2004
  4120  001ACC                     u2005:
  4121  001ACC  90D8               	bcf	status,0,c
  4122  001ACE  3606               	rlcf	(??_digitalWrite+1)^0,f,c
  4123  001AD0                     u2004:
  4124  001AD0  2E05               	decfsz	??_digitalWrite^0,f,c
  4125  001AD2  EF66  F00D         	goto	u2005
  4126  001AD6  5006               	movf	(??_digitalWrite+1)^0,w,c
  4127  001AD8  0AFF               	xorlw	255
  4128  001ADA  1683               	andwf	131,f,c	;volatile
  4129  001ADC  EFAA  F00D         	goto	l77
  4130  001AE0                     l2221:
  4131  001AE0  BE02               	btfsc	(digitalWrite@pin+1)^0,7,c
  4132  001AE2  EF7E  F00D         	goto	u2010
  4133  001AE6  5002               	movf	(digitalWrite@pin+1)^0,w,c
  4134  001AE8  E107               	bnz	u2011
  4135  001AEA  0E28               	movlw	40
  4136  001AEC  5C01               	subwf	digitalWrite@pin^0,w,c
  4137  001AEE  B0D8               	btfsc	status,0,c
  4138  001AF0  EF7C  F00D         	goto	u2011
  4139  001AF4  EF7E  F00D         	goto	u2010
  4140  001AF8                     u2011:
  4141  001AF8  EFAA  F00D         	goto	l77
  4142  001AFC                     u2010:
  4143  001AFC                     
  4144                           ;io.c: 32:         pin -=32;
  4145  001AFC  0EE0               	movlw	224
  4146  001AFE  2601               	addwf	digitalWrite@pin^0,f,c
  4147  001B00  0EFF               	movlw	255
  4148  001B02  2202               	addwfc	(digitalWrite@pin+1)^0,f,c
  4149                           
  4150                           ;io.c: 33:         if (value){ ((PORTE) |= (1<<(pin)));}
  4151  001B04  5003               	movf	digitalWrite@value^0,w,c
  4152  001B06  1004               	iorwf	(digitalWrite@value+1)^0,w,c
  4153  001B08  B4D8               	btfsc	status,2,c
  4154  001B0A  EF89  F00D         	goto	u2021
  4155  001B0E  EF8B  F00D         	goto	u2020
  4156  001B12                     u2021:
  4157  001B12  EF9B  F00D         	goto	l2227
  4158  001B16                     u2020:
  4159  001B16  C001  F005         	movff	digitalWrite@pin,??_digitalWrite
  4160  001B1A  0E01               	movlw	1
  4161  001B1C  6E06               	movwf	(??_digitalWrite+1)^0,c
  4162  001B1E  2A05               	incf	??_digitalWrite^0,f,c
  4163  001B20  EF94  F00D         	goto	u2034
  4164  001B24                     u2035:
  4165  001B24  90D8               	bcf	status,0,c
  4166  001B26  3606               	rlcf	(??_digitalWrite+1)^0,f,c
  4167  001B28                     u2034:
  4168  001B28  2E05               	decfsz	??_digitalWrite^0,f,c
  4169  001B2A  EF92  F00D         	goto	u2035
  4170  001B2E  5006               	movf	(??_digitalWrite+1)^0,w,c
  4171  001B30  1284               	iorwf	132,f,c	;volatile
  4172  001B32  EFAA  F00D         	goto	l77
  4173  001B36                     l2227:
  4174  001B36  C001  F005         	movff	digitalWrite@pin,??_digitalWrite
  4175  001B3A  0E01               	movlw	1
  4176  001B3C  6E06               	movwf	(??_digitalWrite+1)^0,c
  4177  001B3E  2A05               	incf	??_digitalWrite^0,f,c
  4178  001B40  EFA4  F00D         	goto	u2044
  4179  001B44                     u2045:
  4180  001B44  90D8               	bcf	status,0,c
  4181  001B46  3606               	rlcf	(??_digitalWrite+1)^0,f,c
  4182  001B48                     u2044:
  4183  001B48  2E05               	decfsz	??_digitalWrite^0,f,c
  4184  001B4A  EFA2  F00D         	goto	u2045
  4185  001B4E  5006               	movf	(??_digitalWrite+1)^0,w,c
  4186  001B50  0AFF               	xorlw	255
  4187  001B52  1684               	andwf	132,f,c	;volatile
  4188  001B54                     l77:
  4189  001B54  0012               	return		;funcret
  4190  001B56                     __end_of_digitalWrite:
  4191                           	callstack 0
  4192                           
  4193 ;; *************** function _Delay2ms *****************
  4194 ;; Defined at:
  4195 ;;		line 37 in file "lcd.c"
  4196 ;; Parameters:    Size  Location     Type
  4197 ;;		None
  4198 ;; Auto vars:     Size  Location     Type
  4199 ;;  i               1    1[COMRAM] unsigned char 
  4200 ;; Return value:  Size  Location     Type
  4201 ;;                  1    wreg      void 
  4202 ;; Registers used:
  4203 ;;		wreg, status,2, status,0, cstack
  4204 ;; Tracked objects:
  4205 ;;		On entry : 0/0
  4206 ;;		On exit  : 0/0
  4207 ;;		Unchanged: 0/0
  4208 ;; Data sizes:     COMRAM   BANK0   BANK1   BANK2   BANK3   BANK4   BANK5
  4209 ;;      Params:         0       0       0       0       0       0       0
  4210 ;;      Locals:         1       0       0       0       0       0       0
  4211 ;;      Temps:          0       0       0       0       0       0       0
  4212 ;;      Totals:         1       0       0       0       0       0       0
  4213 ;;Total ram usage:        1 bytes
  4214 ;; Hardware stack levels used: 1
  4215 ;; Hardware stack levels required when called: 1
  4216 ;; This function calls:
  4217 ;;		_Delay40us
  4218 ;; This function is called by:
  4219 ;;		_lcdCommand
  4220 ;;		_lcdInit
  4221 ;; This function uses a non-reentrant model
  4222 ;;
  4223                           
  4224                           	psect	text19
  4225  0029A6                     __ptext19:
  4226                           	callstack 0
  4227  0029A6                     _Delay2ms:
  4228                           	callstack 26
  4229  0029A6                     
  4230                           ;lcd.c: 39:  unsigned char i;;lcd.c: 40:  for(i=0; i < 50; i++)
  4231  0029A6  0E00               	movlw	0
  4232  0029A8  6E02               	movwf	Delay2ms@i^0,c
  4233  0029AA                     l2235:
  4234                           
  4235                           ;lcd.c: 41:  {;lcd.c: 42:   Delay40us();
  4236  0029AA  ECED  F014         	call	_Delay40us	;wreg free
  4237  0029AE                     
  4238                           ;lcd.c: 43:  }
  4239  0029AE  2A02               	incf	Delay2ms@i^0,f,c
  4240  0029B0  0E31               	movlw	49
  4241  0029B2  6402               	cpfsgt	Delay2ms@i^0,c
  4242  0029B4  EFDE  F014         	goto	u2051
  4243  0029B8  EFE0  F014         	goto	u2050
  4244  0029BC                     u2051:
  4245  0029BC  EFD5  F014         	goto	l2235
  4246  0029C0                     u2050:
  4247  0029C0  0012               	return		;funcret
  4248  0029C2                     __end_of_Delay2ms:
  4249                           	callstack 0
  4250                           
  4251 ;; *************** function _Delay40us *****************
  4252 ;; Defined at:
  4253 ;;		line 31 in file "lcd.c"
  4254 ;; Parameters:    Size  Location     Type
  4255 ;;		None
  4256 ;; Auto vars:     Size  Location     Type
  4257 ;;  i               1    0[COMRAM] unsigned char 
  4258 ;; Return value:  Size  Location     Type
  4259 ;;                  1    wreg      void 
  4260 ;; Registers used:
  4261 ;;		wreg, status,2, status,0
  4262 ;; Tracked objects:
  4263 ;;		On entry : 0/0
  4264 ;;		On exit  : 0/0
  4265 ;;		Unchanged: 0/0
  4266 ;; Data sizes:     COMRAM   BANK0   BANK1   BANK2   BANK3   BANK4   BANK5
  4267 ;;      Params:         0       0       0       0       0       0       0
  4268 ;;      Locals:         1       0       0       0       0       0       0
  4269 ;;      Temps:          0       0       0       0       0       0       0
  4270 ;;      Totals:         1       0       0       0       0       0       0
  4271 ;;Total ram usage:        1 bytes
  4272 ;; Hardware stack levels used: 1
  4273 ;; This function calls:
  4274 ;;		Nothing
  4275 ;; This function is called by:
  4276 ;;		_Delay2ms
  4277 ;;		_lcdCommand
  4278 ;;		_lcdData
  4279 ;; This function uses a non-reentrant model
  4280 ;;
  4281                           
  4282                           	psect	text20
  4283  0029DA                     __ptext20:
  4284                           	callstack 0
  4285  0029DA                     _Delay40us:
  4286                           	callstack 27
  4287  0029DA                     
  4288                           ;lcd.c: 33:  unsigned char i;;lcd.c: 34:  for(i=0; i < 25; i++);
  4289  0029DA  0E00               	movlw	0
  4290  0029DC  6E01               	movwf	Delay40us@i^0,c
  4291  0029DE                     l2185:
  4292  0029DE  2A01               	incf	Delay40us@i^0,f,c
  4293  0029E0  0E18               	movlw	24
  4294  0029E2  6401               	cpfsgt	Delay40us@i^0,c
  4295  0029E4  EFF6  F014         	goto	u1841
  4296  0029E8  EFF8  F014         	goto	u1840
  4297  0029EC                     u1841:
  4298  0029EC  EFEF  F014         	goto	l2185
  4299  0029F0                     u1840:
  4300  0029F0  0012               	return		;funcret
  4301  0029F2                     __end_of_Delay40us:
  4302                           	callstack 0
  4303                           
  4304 ;; *************** function _kpRead *****************
  4305 ;; Defined at:
  4306 ;;		line 35 in file "keypad.c"
  4307 ;; Parameters:    Size  Location     Type
  4308 ;;		None
  4309 ;; Auto vars:     Size  Location     Type
  4310 ;;		None
  4311 ;; Return value:  Size  Location     Type
  4312 ;;                  2    0[COMRAM] unsigned int 
  4313 ;; Registers used:
  4314 ;;		None
  4315 ;; Tracked objects:
  4316 ;;		On entry : 0/0
  4317 ;;		On exit  : 0/0
  4318 ;;		Unchanged: 0/0
  4319 ;; Data sizes:     COMRAM   BANK0   BANK1   BANK2   BANK3   BANK4   BANK5
  4320 ;;      Params:         2       0       0       0       0       0       0
  4321 ;;      Locals:         0       0       0       0       0       0       0
  4322 ;;      Temps:          0       0       0       0       0       0       0
  4323 ;;      Totals:         2       0       0       0       0       0       0
  4324 ;;Total ram usage:        2 bytes
  4325 ;; Hardware stack levels used: 1
  4326 ;; This function calls:
  4327 ;;		Nothing
  4328 ;; This function is called by:
  4329 ;;		_main
  4330 ;;		_abastece
  4331 ;;		_posAbastece
  4332 ;; This function uses a non-reentrant model
  4333 ;;
  4334                           
  4335                           	psect	text21
  4336  002A26                     __ptext21:
  4337                           	callstack 0
  4338  002A26                     _kpRead:
  4339                           	callstack 30
  4340  002A26                     
  4341                           ;keypad.c: 36:     return valor;
  4342  002A26  C06D  F001         	movff	_valor,?_kpRead
  4343  002A2A  C06E  F002         	movff	_valor+1,?_kpRead+1
  4344  002A2E  0012               	return		;funcret
  4345  002A30                     __end_of_kpRead:
  4346                           	callstack 0
  4347                           
  4348 ;; *************** function _kpDebounce *****************
  4349 ;; Defined at:
  4350 ;;		line 39 in file "keypad.c"
  4351 ;; Parameters:    Size  Location     Type
  4352 ;;		None
  4353 ;; Auto vars:     Size  Location     Type
  4354 ;;  k               2    6[COMRAM] int 
  4355 ;;  i               1    9[COMRAM] unsigned char 
  4356 ;;  j               1    8[COMRAM] unsigned char 
  4357 ;;  old_D           1    5[COMRAM] unsigned char 
  4358 ;; Return value:  Size  Location     Type
  4359 ;;                  1    wreg      void 
  4360 ;; Registers used:
  4361 ;;		wreg, status,2, status,0, prodl, prodh
  4362 ;; Tracked objects:
  4363 ;;		On entry : 0/0
  4364 ;;		On exit  : 0/0
  4365 ;;		Unchanged: 0/0
  4366 ;; Data sizes:     COMRAM   BANK0   BANK1   BANK2   BANK3   BANK4   BANK5
  4367 ;;      Params:         0       0       0       0       0       0       0
  4368 ;;      Locals:         5       0       0       0       0       0       0
  4369 ;;      Temps:          5       0       0       0       0       0       0
  4370 ;;      Totals:        10       0       0       0       0       0       0
  4371 ;;Total ram usage:       10 bytes
  4372 ;; Hardware stack levels used: 1
  4373 ;; This function calls:
  4374 ;;		Nothing
  4375 ;; This function is called by:
  4376 ;;		_main
  4377 ;;		_abastece
  4378 ;;		_posAbastece
  4379 ;; This function uses a non-reentrant model
  4380 ;;
  4381                           
  4382                           	psect	text22
  4383  001E96                     __ptext22:
  4384                           	callstack 0
  4385  001E96                     _kpDebounce:
  4386                           	callstack 30
  4387  001E96                     
  4388                           ;keypad.c: 40:     unsigned char i, j;;keypad.c: 41:     static unsigned char tempo;;key
      +                          pad.c: 42:     static unsigned int valorNovo = 0x0000;;keypad.c: 43:     static unsigned
      +                           int valorAntigo = 0x0000;;keypad.c: 46:     unsigned char old_D;;keypad.c: 47:     old_
      +                          D = PORTD;
  4389  001E96  CF83 F006          	movff	3971,kpDebounce@old_D	;volatile
  4390  001E9A                     
  4391                           ;keypad.c: 51:     TRISD |= 0x0f;
  4392  001E9A  0E0F               	movlw	15
  4393  001E9C  1295               	iorwf	149,f,c	;volatile
  4394  001E9E                     
  4395                           ;keypad.c: 53:     for (i = 0; i < 3; i++) {
  4396  001E9E  0E00               	movlw	0
  4397  001EA0  6E0A               	movwf	kpDebounce@i^0,c
  4398  001EA2                     l1137:
  4399                           
  4400                           ;keypad.c: 55:         TRISB &= 0xF8;
  4401  001EA2  0EF8               	movlw	248
  4402  001EA4  1693               	andwf	147,f,c	;volatile
  4403                           
  4404                           ;keypad.c: 57:         ((TRISB) |= (1<<(i)));
  4405  001EA6  C00A  F001         	movff	kpDebounce@i,??_kpDebounce
  4406  001EAA  0E01               	movlw	1
  4407  001EAC  6E02               	movwf	(??_kpDebounce+1)^0,c
  4408  001EAE  2A01               	incf	??_kpDebounce^0,f,c
  4409  001EB0  EF5C  F00F         	goto	u284
  4410  001EB4                     u285:
  4411  001EB4  90D8               	bcf	status,0,c
  4412  001EB6  3602               	rlcf	(??_kpDebounce+1)^0,f,c
  4413  001EB8                     u284:
  4414  001EB8  2E01               	decfsz	??_kpDebounce^0,f,c
  4415  001EBA  EF5A  F00F         	goto	u285
  4416  001EBE  5002               	movf	(??_kpDebounce+1)^0,w,c
  4417  001EC0  1293               	iorwf	147,f,c	;volatile
  4418                           
  4419                           ;keypad.c: 59:         PORTB |= 0x07;
  4420  001EC2  0E07               	movlw	7
  4421  001EC4  1281               	iorwf	129,f,c	;volatile
  4422                           
  4423                           ;keypad.c: 60:         ((PORTB) &= ~(1<<(i)));
  4424  001EC6  C00A  F001         	movff	kpDebounce@i,??_kpDebounce
  4425  001ECA  0E01               	movlw	1
  4426  001ECC  6E02               	movwf	(??_kpDebounce+1)^0,c
  4427  001ECE  2A01               	incf	??_kpDebounce^0,f,c
  4428  001ED0  EF6C  F00F         	goto	u294
  4429  001ED4                     u295:
  4430  001ED4  90D8               	bcf	status,0,c
  4431  001ED6  3602               	rlcf	(??_kpDebounce+1)^0,f,c
  4432  001ED8                     u294:
  4433  001ED8  2E01               	decfsz	??_kpDebounce^0,f,c
  4434  001EDA  EF6A  F00F         	goto	u295
  4435  001EDE  5002               	movf	(??_kpDebounce+1)^0,w,c
  4436  001EE0  0AFF               	xorlw	255
  4437  001EE2  1681               	andwf	129,f,c	;volatile
  4438  001EE4                     
  4439                           ;keypad.c: 63:         for (int k = 0; k < 10; k++);
  4440  001EE4  0E00               	movlw	0
  4441  001EE6  6E08               	movwf	(kpDebounce@k+1)^0,c
  4442  001EE8  0E00               	movlw	0
  4443  001EEA  6E07               	movwf	kpDebounce@k^0,c
  4444  001EEC                     l1145:
  4445  001EEC  4A07               	infsnz	kpDebounce@k^0,f,c
  4446  001EEE  2A08               	incf	(kpDebounce@k+1)^0,f,c
  4447  001EF0  BE08               	btfsc	(kpDebounce@k+1)^0,7,c
  4448  001EF2  EF84  F00F         	goto	u301
  4449  001EF6  5008               	movf	(kpDebounce@k+1)^0,w,c
  4450  001EF8  E109               	bnz	u300
  4451  001EFA  0E0A               	movlw	10
  4452  001EFC  5C07               	subwf	kpDebounce@k^0,w,c
  4453  001EFE  A0D8               	btfss	status,0,c
  4454  001F00  EF84  F00F         	goto	u301
  4455  001F04  EF86  F00F         	goto	u300
  4456  001F08                     u301:
  4457  001F08  EF76  F00F         	goto	l1145
  4458  001F0C                     u300:
  4459  001F0C                     
  4460                           ;keypad.c: 66:         for (j = 0; j < 4; j++) {
  4461  001F0C  0E00               	movlw	0
  4462  001F0E  6E09               	movwf	kpDebounce@j^0,c
  4463  001F10                     l1155:
  4464                           
  4465                           ;keypad.c: 67:             if (!((PORTD) & (1<<(j)))) {
  4466  001F10  C009  F001         	movff	kpDebounce@j,??_kpDebounce
  4467  001F14  0E01               	movlw	1
  4468  001F16  6E02               	movwf	(??_kpDebounce+1)^0,c
  4469  001F18  2A01               	incf	??_kpDebounce^0,f,c
  4470  001F1A  EF91  F00F         	goto	u314
  4471  001F1E                     u315:
  4472  001F1E  90D8               	bcf	status,0,c
  4473  001F20  3602               	rlcf	(??_kpDebounce+1)^0,f,c
  4474  001F22                     u314:
  4475  001F22  2E01               	decfsz	??_kpDebounce^0,f,c
  4476  001F24  EF8F  F00F         	goto	u315
  4477  001F28  5002               	movf	(??_kpDebounce+1)^0,w,c
  4478  001F2A  1483               	andwf	131,w,c	;volatile
  4479  001F2C  0900               	iorlw	0
  4480  001F2E  A4D8               	btfss	status,2,c
  4481  001F30  EF9C  F00F         	goto	u321
  4482  001F34  EF9E  F00F         	goto	u320
  4483  001F38                     u321:
  4484  001F38  EFB6  F00F         	goto	l1159
  4485  001F3C                     u320:
  4486  001F3C                     
  4487                           ;keypad.c: 68:                 ((valorNovo) |= (1<<((i * 4) + j)));
  4488  001F3C  500A               	movf	kpDebounce@i^0,w,c
  4489  001F3E  0D04               	mullw	4
  4490  001F40  50F3               	movf	243,w,c
  4491  001F42  2409               	addwf	kpDebounce@j^0,w,c
  4492  001F44  6E01               	movwf	??_kpDebounce^0,c
  4493  001F46  0E01               	movlw	1
  4494  001F48  6E02               	movwf	(??_kpDebounce+1)^0,c
  4495  001F4A  0E00               	movlw	0
  4496  001F4C  6E03               	movwf	(??_kpDebounce+2)^0,c
  4497  001F4E  2A01               	incf	??_kpDebounce^0,f,c
  4498  001F50  EFAD  F00F         	goto	u334
  4499  001F54                     u335:
  4500  001F54  90D8               	bcf	status,0,c
  4501  001F56  3602               	rlcf	(??_kpDebounce+1)^0,f,c
  4502  001F58  3603               	rlcf	(??_kpDebounce+2)^0,f,c
  4503  001F5A                     u334:
  4504  001F5A  2E01               	decfsz	??_kpDebounce^0,f,c
  4505  001F5C  EFAA  F00F         	goto	u335
  4506  001F60  5002               	movf	(??_kpDebounce+1)^0,w,c
  4507  001F62  126B               	iorwf	kpDebounce@valorNovo^0,f,c
  4508  001F64  5003               	movf	(??_kpDebounce+2)^0,w,c
  4509  001F66  126C               	iorwf	(kpDebounce@valorNovo+1)^0,f,c
  4510                           
  4511                           ;keypad.c: 69:             } else {
  4512  001F68  EFD0  F00F         	goto	l1161
  4513  001F6C                     l1159:
  4514                           
  4515                           ;keypad.c: 70:                 ((valorNovo) &= ~(1<<((i * 4) + j)));
  4516  001F6C  500A               	movf	kpDebounce@i^0,w,c
  4517  001F6E  0D04               	mullw	4
  4518  001F70  50F3               	movf	243,w,c
  4519  001F72  2409               	addwf	kpDebounce@j^0,w,c
  4520  001F74  6E01               	movwf	??_kpDebounce^0,c
  4521  001F76  0E01               	movlw	1
  4522  001F78  6E02               	movwf	(??_kpDebounce+1)^0,c
  4523  001F7A  0E00               	movlw	0
  4524  001F7C  6E03               	movwf	(??_kpDebounce+2)^0,c
  4525  001F7E  2A01               	incf	??_kpDebounce^0,f,c
  4526  001F80  EFC5  F00F         	goto	u344
  4527  001F84                     u345:
  4528  001F84  90D8               	bcf	status,0,c
  4529  001F86  3602               	rlcf	(??_kpDebounce+1)^0,f,c
  4530  001F88  3603               	rlcf	(??_kpDebounce+2)^0,f,c
  4531  001F8A                     u344:
  4532  001F8A  2E01               	decfsz	??_kpDebounce^0,f,c
  4533  001F8C  EFC2  F00F         	goto	u345
  4534  001F90  1C02               	comf	(??_kpDebounce+1)^0,w,c
  4535  001F92  6E04               	movwf	(??_kpDebounce+3)^0,c
  4536  001F94  1C03               	comf	(??_kpDebounce+2)^0,w,c
  4537  001F96  6E05               	movwf	(??_kpDebounce+4)^0,c
  4538  001F98  5004               	movf	(??_kpDebounce+3)^0,w,c
  4539  001F9A  166B               	andwf	kpDebounce@valorNovo^0,f,c
  4540  001F9C  5005               	movf	(??_kpDebounce+4)^0,w,c
  4541  001F9E  166C               	andwf	(kpDebounce@valorNovo+1)^0,f,c
  4542  001FA0                     l1161:
  4543                           
  4544                           ;keypad.c: 72:         }
  4545  001FA0  2A09               	incf	kpDebounce@j^0,f,c
  4546  001FA2  0E03               	movlw	3
  4547  001FA4  6409               	cpfsgt	kpDebounce@j^0,c
  4548  001FA6  EFD7  F00F         	goto	u351
  4549  001FAA  EFD9  F00F         	goto	u350
  4550  001FAE                     u351:
  4551  001FAE  EF88  F00F         	goto	l1155
  4552  001FB2                     u350:
  4553  001FB2                     
  4554                           ;keypad.c: 73:     }
  4555  001FB2  2A0A               	incf	kpDebounce@i^0,f,c
  4556  001FB4  0E02               	movlw	2
  4557  001FB6  640A               	cpfsgt	kpDebounce@i^0,c
  4558  001FB8  EFE0  F00F         	goto	u361
  4559  001FBC  EFE2  F00F         	goto	u360
  4560  001FC0                     u361:
  4561  001FC0  EF51  F00F         	goto	l1137
  4562  001FC4                     u360:
  4563  001FC4                     
  4564                           ;keypad.c: 74:     if (valorAntigo == valorNovo) {
  4565  001FC4  506B               	movf	kpDebounce@valorNovo^0,w,c
  4566  001FC6  1869               	xorwf	kpDebounce@valorAntigo^0,w,c
  4567  001FC8  E107               	bnz	u371
  4568  001FCA  506C               	movf	(kpDebounce@valorNovo+1)^0,w,c
  4569  001FCC  186A               	xorwf	(kpDebounce@valorAntigo+1)^0,w,c
  4570  001FCE  A4D8               	btfss	status,2,c
  4571  001FD0  EFEC  F00F         	goto	u371
  4572  001FD4  EFEE  F00F         	goto	u370
  4573  001FD8                     u371:
  4574  001FD8  EFF1  F00F         	goto	l1173
  4575  001FDC                     u370:
  4576  001FDC                     
  4577                           ;keypad.c: 75:         tempo--;
  4578  001FDC  0674               	decf	kpDebounce@tempo^0,f,c
  4579                           
  4580                           ;keypad.c: 76:     } else {
  4581  001FDE  EFF7  F00F         	goto	l142
  4582  001FE2                     l1173:
  4583                           
  4584                           ;keypad.c: 77:         tempo = 10;
  4585  001FE2  0E0A               	movlw	10
  4586  001FE4  6E74               	movwf	kpDebounce@tempo^0,c
  4587  001FE6                     
  4588                           ;keypad.c: 78:         valorAntigo = valorNovo;
  4589  001FE6  C06B  F069         	movff	kpDebounce@valorNovo,kpDebounce@valorAntigo
  4590  001FEA  C06C  F06A         	movff	kpDebounce@valorNovo+1,kpDebounce@valorAntigo+1
  4591  001FEE                     l142:
  4592                           
  4593                           ;keypad.c: 80:     if (tempo == 0) {
  4594  001FEE  5074               	movf	kpDebounce@tempo^0,w,c
  4595  001FF0  A4D8               	btfss	status,2,c
  4596  001FF2  EFFD  F00F         	goto	u381
  4597  001FF6  EFFF  F00F         	goto	u380
  4598  001FFA                     u381:
  4599  001FFA  EF03  F010         	goto	l143
  4600  001FFE                     u380:
  4601  001FFE                     
  4602                           ;keypad.c: 81:         valor = valorAntigo;
  4603  001FFE  C069  F06D         	movff	kpDebounce@valorAntigo,_valor
  4604  002002  C06A  F06E         	movff	kpDebounce@valorAntigo+1,_valor+1
  4605  002006                     l143:
  4606                           
  4607                           ;keypad.c: 83:     PORTD = old_D;
  4608  002006  C006  FF83         	movff	kpDebounce@old_D,3971	;volatile
  4609  00200A                     
  4610                           ;keypad.c: 84:     TRISD = 0x00;
  4611  00200A  0E00               	movlw	0
  4612  00200C  6E95               	movwf	149,c	;volatile
  4613  00200E  0012               	return		;funcret
  4614  002010                     __end_of_kpDebounce:
  4615                           	callstack 0
  4616                           
  4617 ;; *************** function ___wmul *****************
  4618 ;; Defined at:
  4619 ;;		line 15 in file "C:\Program Files\Microchip\xc8\v2.32\pic\sources\c99\common\Umul16.c"
  4620 ;; Parameters:    Size  Location     Type
  4621 ;;  multiplier      2    0[COMRAM] unsigned int 
  4622 ;;  multiplicand    2    2[COMRAM] unsigned int 
  4623 ;; Auto vars:     Size  Location     Type
  4624 ;;  product         2    4[COMRAM] unsigned int 
  4625 ;; Return value:  Size  Location     Type
  4626 ;;                  2    0[COMRAM] unsigned int 
  4627 ;; Registers used:
  4628 ;;		wreg, status,2, status,0, prodl, prodh
  4629 ;; Tracked objects:
  4630 ;;		On entry : 0/0
  4631 ;;		On exit  : 0/0
  4632 ;;		Unchanged: 0/0
  4633 ;; Data sizes:     COMRAM   BANK0   BANK1   BANK2   BANK3   BANK4   BANK5
  4634 ;;      Params:         4       0       0       0       0       0       0
  4635 ;;      Locals:         2       0       0       0       0       0       0
  4636 ;;      Temps:          0       0       0       0       0       0       0
  4637 ;;      Totals:         6       0       0       0       0       0       0
  4638 ;;Total ram usage:        6 bytes
  4639 ;; Hardware stack levels used: 1
  4640 ;; This function calls:
  4641 ;;		Nothing
  4642 ;; This function is called by:
  4643 ;;		_abastece
  4644 ;;		_posAbastece
  4645 ;;		_pwmSet1
  4646 ;;		_pwmSet2
  4647 ;; This function uses a non-reentrant model
  4648 ;;
  4649                           
  4650                           	psect	text23
  4651  002980                     __ptext23:
  4652                           	callstack 0
  4653  002980                     ___wmul:
  4654                           	callstack 28
  4655  002980  5001               	movf	___wmul@multiplier^0,w,c
  4656  002982  0203               	mulwf	___wmul@multiplicand^0,c
  4657  002984  CFF3 F005          	movff	prodl,___wmul@product
  4658  002988  CFF4 F006          	movff	prodh,___wmul@product+1
  4659  00298C  5001               	movf	___wmul@multiplier^0,w,c
  4660  00298E  0204               	mulwf	(___wmul@multiplicand+1)^0,c
  4661  002990  50F3               	movf	243,w,c
  4662  002992  2606               	addwf	(___wmul@product+1)^0,f,c
  4663  002994  5002               	movf	(___wmul@multiplier+1)^0,w,c
  4664  002996  0203               	mulwf	___wmul@multiplicand^0,c
  4665  002998  50F3               	movf	243,w,c
  4666  00299A  2606               	addwf	(___wmul@product+1)^0,f,c
  4667  00299C  C005  F001         	movff	___wmul@product,?___wmul
  4668  0029A0  C006  F002         	movff	___wmul@product+1,?___wmul+1
  4669  0029A4  0012               	return		;funcret
  4670  0029A6                     __end_of___wmul:
  4671                           	callstack 0
  4672                           
  4673 ;; *************** function ___lwmod *****************
  4674 ;; Defined at:
  4675 ;;		line 7 in file "C:\Program Files\Microchip\xc8\v2.32\pic\sources\c99\common\lwmod.c"
  4676 ;; Parameters:    Size  Location     Type
  4677 ;;  dividend        2    7[COMRAM] unsigned int 
  4678 ;;  divisor         2    9[COMRAM] unsigned int 
  4679 ;; Auto vars:     Size  Location     Type
  4680 ;;  counter         1   11[COMRAM] unsigned char 
  4681 ;; Return value:  Size  Location     Type
  4682 ;;                  2    7[COMRAM] unsigned int 
  4683 ;; Registers used:
  4684 ;;		wreg, status,2, status,0
  4685 ;; Tracked objects:
  4686 ;;		On entry : 0/0
  4687 ;;		On exit  : 0/0
  4688 ;;		Unchanged: 0/0
  4689 ;; Data sizes:     COMRAM   BANK0   BANK1   BANK2   BANK3   BANK4   BANK5
  4690 ;;      Params:         4       0       0       0       0       0       0
  4691 ;;      Locals:         1       0       0       0       0       0       0
  4692 ;;      Temps:          0       0       0       0       0       0       0
  4693 ;;      Totals:         5       0       0       0       0       0       0
  4694 ;;Total ram usage:        5 bytes
  4695 ;; Hardware stack levels used: 1
  4696 ;; This function calls:
  4697 ;;		Nothing
  4698 ;; This function is called by:
  4699 ;;		_abastece
  4700 ;;		_posAbastece
  4701 ;; This function uses a non-reentrant model
  4702 ;;
  4703                           
  4704                           	psect	text24
  4705  002730                     __ptext24:
  4706                           	callstack 0
  4707  002730                     ___lwmod:
  4708                           	callstack 28
  4709  002730  500A               	movf	___lwmod@divisor^0,w,c
  4710  002732  100B               	iorwf	(___lwmod@divisor+1)^0,w,c
  4711  002734  B4D8               	btfsc	status,2,c
  4712  002736  EF9F  F013         	goto	u2201
  4713  00273A  EFA1  F013         	goto	u2200
  4714  00273E                     u2201:
  4715  00273E  EFC5  F013         	goto	l829
  4716  002742                     u2200:
  4717  002742  0E01               	movlw	1
  4718  002744  6E0C               	movwf	___lwmod@counter^0,c
  4719  002746  EFA9  F013         	goto	l2391
  4720  00274A                     l2389:
  4721  00274A  90D8               	bcf	status,0,c
  4722  00274C  360A               	rlcf	___lwmod@divisor^0,f,c
  4723  00274E  360B               	rlcf	(___lwmod@divisor+1)^0,f,c
  4724  002750  2A0C               	incf	___lwmod@counter^0,f,c
  4725  002752                     l2391:
  4726  002752  AE0B               	btfss	(___lwmod@divisor+1)^0,7,c
  4727  002754  EFAE  F013         	goto	u2211
  4728  002758  EFB0  F013         	goto	u2210
  4729  00275C                     u2211:
  4730  00275C  EFA5  F013         	goto	l2389
  4731  002760                     u2210:
  4732  002760                     l2393:
  4733  002760  500A               	movf	___lwmod@divisor^0,w,c
  4734  002762  5C08               	subwf	___lwmod@dividend^0,w,c
  4735  002764  500B               	movf	(___lwmod@divisor+1)^0,w,c
  4736  002766  5809               	subwfb	(___lwmod@dividend+1)^0,w,c
  4737  002768  A0D8               	btfss	status,0,c
  4738  00276A  EFB9  F013         	goto	u2221
  4739  00276E  EFBB  F013         	goto	u2220
  4740  002772                     u2221:
  4741  002772  EFBF  F013         	goto	l2397
  4742  002776                     u2220:
  4743  002776  500A               	movf	___lwmod@divisor^0,w,c
  4744  002778  5E08               	subwf	___lwmod@dividend^0,f,c
  4745  00277A  500B               	movf	(___lwmod@divisor+1)^0,w,c
  4746  00277C  5A09               	subwfb	(___lwmod@dividend+1)^0,f,c
  4747  00277E                     l2397:
  4748  00277E  90D8               	bcf	status,0,c
  4749  002780  320B               	rrcf	(___lwmod@divisor+1)^0,f,c
  4750  002782  320A               	rrcf	___lwmod@divisor^0,f,c
  4751  002784  2E0C               	decfsz	___lwmod@counter^0,f,c
  4752  002786  EFB0  F013         	goto	l2393
  4753  00278A                     l829:
  4754  00278A  C008  F008         	movff	___lwmod@dividend,?___lwmod
  4755  00278E  C009  F009         	movff	___lwmod@dividend+1,?___lwmod+1
  4756  002792  0012               	return		;funcret
  4757  002794                     __end_of___lwmod:
  4758                           	callstack 0
  4759                           
  4760 ;; *************** function ___lwdiv *****************
  4761 ;; Defined at:
  4762 ;;		line 7 in file "C:\Program Files\Microchip\xc8\v2.32\pic\sources\c99\common\lwdiv.c"
  4763 ;; Parameters:    Size  Location     Type
  4764 ;;  dividend        2    0[COMRAM] unsigned int 
  4765 ;;  divisor         2    2[COMRAM] unsigned int 
  4766 ;; Auto vars:     Size  Location     Type
  4767 ;;  quotient        2    4[COMRAM] unsigned int 
  4768 ;;  counter         1    6[COMRAM] unsigned char 
  4769 ;; Return value:  Size  Location     Type
  4770 ;;                  2    0[COMRAM] unsigned int 
  4771 ;; Registers used:
  4772 ;;		wreg, status,2, status,0
  4773 ;; Tracked objects:
  4774 ;;		On entry : 0/0
  4775 ;;		On exit  : 0/0
  4776 ;;		Unchanged: 0/0
  4777 ;; Data sizes:     COMRAM   BANK0   BANK1   BANK2   BANK3   BANK4   BANK5
  4778 ;;      Params:         4       0       0       0       0       0       0
  4779 ;;      Locals:         3       0       0       0       0       0       0
  4780 ;;      Temps:          0       0       0       0       0       0       0
  4781 ;;      Totals:         7       0       0       0       0       0       0
  4782 ;;Total ram usage:        7 bytes
  4783 ;; Hardware stack levels used: 1
  4784 ;; This function calls:
  4785 ;;		Nothing
  4786 ;; This function is called by:
  4787 ;;		_abastece
  4788 ;;		_posAbastece
  4789 ;;		_pwmSet1
  4790 ;;		_pwmSet2
  4791 ;; This function uses a non-reentrant model
  4792 ;;
  4793                           
  4794                           	psect	text25
  4795  0025E6                     __ptext25:
  4796                           	callstack 0
  4797  0025E6                     ___lwdiv:
  4798                           	callstack 28
  4799  0025E6  0E00               	movlw	0
  4800  0025E8  6E06               	movwf	(___lwdiv@quotient+1)^0,c
  4801  0025EA  0E00               	movlw	0
  4802  0025EC  6E05               	movwf	___lwdiv@quotient^0,c
  4803  0025EE  5003               	movf	___lwdiv@divisor^0,w,c
  4804  0025F0  1004               	iorwf	(___lwdiv@divisor+1)^0,w,c
  4805  0025F2  B4D8               	btfsc	status,2,c
  4806  0025F4  EFFE  F012         	goto	u2171
  4807  0025F8  EF00  F013         	goto	u2170
  4808  0025FC                     u2171:
  4809  0025FC  EF28  F013         	goto	l819
  4810  002600                     u2170:
  4811  002600  0E01               	movlw	1
  4812  002602  6E07               	movwf	___lwdiv@counter^0,c
  4813  002604  EF08  F013         	goto	l2371
  4814  002608                     l2369:
  4815  002608  90D8               	bcf	status,0,c
  4816  00260A  3603               	rlcf	___lwdiv@divisor^0,f,c
  4817  00260C  3604               	rlcf	(___lwdiv@divisor+1)^0,f,c
  4818  00260E  2A07               	incf	___lwdiv@counter^0,f,c
  4819  002610                     l2371:
  4820  002610  AE04               	btfss	(___lwdiv@divisor+1)^0,7,c
  4821  002612  EF0D  F013         	goto	u2181
  4822  002616  EF0F  F013         	goto	u2180
  4823  00261A                     u2181:
  4824  00261A  EF04  F013         	goto	l2369
  4825  00261E                     u2180:
  4826  00261E                     l2373:
  4827  00261E  90D8               	bcf	status,0,c
  4828  002620  3605               	rlcf	___lwdiv@quotient^0,f,c
  4829  002622  3606               	rlcf	(___lwdiv@quotient+1)^0,f,c
  4830  002624  5003               	movf	___lwdiv@divisor^0,w,c
  4831  002626  5C01               	subwf	___lwdiv@dividend^0,w,c
  4832  002628  5004               	movf	(___lwdiv@divisor+1)^0,w,c
  4833  00262A  5802               	subwfb	(___lwdiv@dividend+1)^0,w,c
  4834  00262C  A0D8               	btfss	status,0,c
  4835  00262E  EF1B  F013         	goto	u2191
  4836  002632  EF1D  F013         	goto	u2190
  4837  002636                     u2191:
  4838  002636  EF22  F013         	goto	l2381
  4839  00263A                     u2190:
  4840  00263A  5003               	movf	___lwdiv@divisor^0,w,c
  4841  00263C  5E01               	subwf	___lwdiv@dividend^0,f,c
  4842  00263E  5004               	movf	(___lwdiv@divisor+1)^0,w,c
  4843  002640  5A02               	subwfb	(___lwdiv@dividend+1)^0,f,c
  4844  002642  8005               	bsf	___lwdiv@quotient^0,0,c
  4845  002644                     l2381:
  4846  002644  90D8               	bcf	status,0,c
  4847  002646  3204               	rrcf	(___lwdiv@divisor+1)^0,f,c
  4848  002648  3203               	rrcf	___lwdiv@divisor^0,f,c
  4849  00264A  2E07               	decfsz	___lwdiv@counter^0,f,c
  4850  00264C  EF0F  F013         	goto	l2373
  4851  002650                     l819:
  4852  002650  C005  F001         	movff	___lwdiv@quotient,?___lwdiv
  4853  002654  C006  F002         	movff	___lwdiv@quotient+1,?___lwdiv+1
  4854  002658  0012               	return		;funcret
  4855  00265A                     __end_of___lwdiv:
  4856                           	callstack 0
  4857                           
  4858 ;; *************** function ___xxtofl *****************
  4859 ;; Defined at:
  4860 ;;		line 10 in file "C:\Program Files\Microchip\xc8\v2.32\pic\sources\c99\common\xxtofl.c"
  4861 ;; Parameters:    Size  Location     Type
  4862 ;;  sign            1    wreg     unsigned char 
  4863 ;;  val             4    0[COMRAM] long 
  4864 ;; Auto vars:     Size  Location     Type
  4865 ;;  sign            1    8[COMRAM] unsigned char 
  4866 ;;  arg             4   10[COMRAM] unsigned long 
  4867 ;;  exp             1    9[COMRAM] unsigned char 
  4868 ;; Return value:  Size  Location     Type
  4869 ;;                  4    0[COMRAM] unsigned char 
  4870 ;; Registers used:
  4871 ;;		wreg, status,2, status,0
  4872 ;; Tracked objects:
  4873 ;;		On entry : 0/0
  4874 ;;		On exit  : 0/0
  4875 ;;		Unchanged: 0/0
  4876 ;; Data sizes:     COMRAM   BANK0   BANK1   BANK2   BANK3   BANK4   BANK5
  4877 ;;      Params:         4       0       0       0       0       0       0
  4878 ;;      Locals:         6       0       0       0       0       0       0
  4879 ;;      Temps:          4       0       0       0       0       0       0
  4880 ;;      Totals:        14       0       0       0       0       0       0
  4881 ;;Total ram usage:       14 bytes
  4882 ;; Hardware stack levels used: 1
  4883 ;; This function calls:
  4884 ;;		Nothing
  4885 ;; This function is called by:
  4886 ;;		_abastece
  4887 ;; This function uses a non-reentrant model
  4888 ;;
  4889                           
  4890                           	psect	text26
  4891  001B56                     __ptext26:
  4892                           	callstack 0
  4893  001B56                     ___xxtofl:
  4894                           	callstack 29
  4895                           
  4896                           ;incstack = 0
  4897                           ;___xxtofl@sign stored from wreg
  4898  001B56  6E09               	movwf	___xxtofl@sign^0,c
  4899  001B58  5009               	movf	___xxtofl@sign^0,w,c
  4900  001B5A  B4D8               	btfsc	status,2,c
  4901  001B5C  EFB2  F00D         	goto	u3231
  4902  001B60  EFB4  F00D         	goto	u3230
  4903  001B64                     u3231:
  4904  001B64  EFD6  F00D         	goto	l983
  4905  001B68                     u3230:
  4906  001B68  BE04               	btfsc	(___xxtofl@val+3)^0,7,c
  4907  001B6A  EFBB  F00D         	goto	u3240
  4908  001B6E  EFB9  F00D         	goto	u3241
  4909  001B72                     u3241:
  4910  001B72  EFD6  F00D         	goto	l983
  4911  001B76                     u3240:
  4912  001B76  C001  F005         	movff	___xxtofl@val,??___xxtofl
  4913  001B7A  C002  F006         	movff	___xxtofl@val+1,??___xxtofl+1
  4914  001B7E  C003  F007         	movff	___xxtofl@val+2,??___xxtofl+2
  4915  001B82  C004  F008         	movff	___xxtofl@val+3,??___xxtofl+3
  4916  001B86  1E05               	comf	??___xxtofl^0,f,c
  4917  001B88  1E06               	comf	(??___xxtofl+1)^0,f,c
  4918  001B8A  1E07               	comf	(??___xxtofl+2)^0,f,c
  4919  001B8C  1E08               	comf	(??___xxtofl+3)^0,f,c
  4920  001B8E  2A05               	incf	??___xxtofl^0,f,c
  4921  001B90  0E00               	movlw	0
  4922  001B92  2206               	addwfc	(??___xxtofl+1)^0,f,c
  4923  001B94  2207               	addwfc	(??___xxtofl+2)^0,f,c
  4924  001B96  2208               	addwfc	(??___xxtofl+3)^0,f,c
  4925  001B98  C005  F00B         	movff	??___xxtofl,___xxtofl@arg
  4926  001B9C  C006  F00C         	movff	??___xxtofl+1,___xxtofl@arg+1
  4927  001BA0  C007  F00D         	movff	??___xxtofl+2,___xxtofl@arg+2
  4928  001BA4  C008  F00E         	movff	??___xxtofl+3,___xxtofl@arg+3
  4929  001BA8  EFDE  F00D         	goto	l3011
  4930  001BAC                     l983:
  4931  001BAC  C001  F00B         	movff	___xxtofl@val,___xxtofl@arg
  4932  001BB0  C002  F00C         	movff	___xxtofl@val+1,___xxtofl@arg+1
  4933  001BB4  C003  F00D         	movff	___xxtofl@val+2,___xxtofl@arg+2
  4934  001BB8  C004  F00E         	movff	___xxtofl@val+3,___xxtofl@arg+3
  4935  001BBC                     l3011:
  4936  001BBC  5001               	movf	___xxtofl@val^0,w,c
  4937  001BBE  1002               	iorwf	(___xxtofl@val+1)^0,w,c
  4938  001BC0  1003               	iorwf	(___xxtofl@val+2)^0,w,c
  4939  001BC2  1004               	iorwf	(___xxtofl@val+3)^0,w,c
  4940  001BC4  A4D8               	btfss	status,2,c
  4941  001BC6  EFE7  F00D         	goto	u3251
  4942  001BCA  EFE9  F00D         	goto	u3250
  4943  001BCE                     u3251:
  4944  001BCE  EFF3  F00D         	goto	l3017
  4945  001BD2                     u3250:
  4946  001BD2  0E00               	movlw	0
  4947  001BD4  6E01               	movwf	?___xxtofl^0,c
  4948  001BD6  0E00               	movlw	0
  4949  001BD8  6E02               	movwf	(?___xxtofl+1)^0,c
  4950  001BDA  0E00               	movlw	0
  4951  001BDC  6E03               	movwf	(?___xxtofl+2)^0,c
  4952  001BDE  0E00               	movlw	0
  4953  001BE0  6E04               	movwf	(?___xxtofl+3)^0,c
  4954  001BE2  EF84  F00E         	goto	l986
  4955  001BE6                     l3017:
  4956  001BE6  0E96               	movlw	150
  4957  001BE8  6E0A               	movwf	___xxtofl@exp^0,c
  4958  001BEA  EFFD  F00D         	goto	l3021
  4959  001BEE                     l3019:
  4960  001BEE  2A0A               	incf	___xxtofl@exp^0,f,c
  4961  001BF0  90D8               	bcf	status,0,c
  4962  001BF2  320E               	rrcf	(___xxtofl@arg+3)^0,f,c
  4963  001BF4  320D               	rrcf	(___xxtofl@arg+2)^0,f,c
  4964  001BF6  320C               	rrcf	(___xxtofl@arg+1)^0,f,c
  4965  001BF8  320B               	rrcf	___xxtofl@arg^0,f,c
  4966  001BFA                     l3021:
  4967  001BFA  0E00               	movlw	0
  4968  001BFC  140B               	andwf	___xxtofl@arg^0,w,c
  4969  001BFE  6E05               	movwf	??___xxtofl^0,c
  4970  001C00  0E00               	movlw	0
  4971  001C02  140C               	andwf	(___xxtofl@arg+1)^0,w,c
  4972  001C04  6E06               	movwf	(??___xxtofl+1)^0,c
  4973  001C06  0E00               	movlw	0
  4974  001C08  140D               	andwf	(___xxtofl@arg+2)^0,w,c
  4975  001C0A  6E07               	movwf	(??___xxtofl+2)^0,c
  4976  001C0C  0EFE               	movlw	254
  4977  001C0E  140E               	andwf	(___xxtofl@arg+3)^0,w,c
  4978  001C10  6E08               	movwf	(??___xxtofl+3)^0,c
  4979  001C12  5005               	movf	??___xxtofl^0,w,c
  4980  001C14  1006               	iorwf	(??___xxtofl+1)^0,w,c
  4981  001C16  1007               	iorwf	(??___xxtofl+2)^0,w,c
  4982  001C18  1008               	iorwf	(??___xxtofl+3)^0,w,c
  4983  001C1A  A4D8               	btfss	status,2,c
  4984  001C1C  EF12  F00E         	goto	u3261
  4985  001C20  EF14  F00E         	goto	u3260
  4986  001C24                     u3261:
  4987  001C24  EFF7  F00D         	goto	l3019
  4988  001C28                     u3260:
  4989  001C28  EF22  F00E         	goto	l990
  4990  001C2C                     l3023:
  4991  001C2C  2A0A               	incf	___xxtofl@exp^0,f,c
  4992  001C2E  0E01               	movlw	1
  4993  001C30  260B               	addwf	___xxtofl@arg^0,f,c
  4994  001C32  0E00               	movlw	0
  4995  001C34  220C               	addwfc	(___xxtofl@arg+1)^0,f,c
  4996  001C36  220D               	addwfc	(___xxtofl@arg+2)^0,f,c
  4997  001C38  220E               	addwfc	(___xxtofl@arg+3)^0,f,c
  4998  001C3A  90D8               	bcf	status,0,c
  4999  001C3C  320E               	rrcf	(___xxtofl@arg+3)^0,f,c
  5000  001C3E  320D               	rrcf	(___xxtofl@arg+2)^0,f,c
  5001  001C40  320C               	rrcf	(___xxtofl@arg+1)^0,f,c
  5002  001C42  320B               	rrcf	___xxtofl@arg^0,f,c
  5003  001C44                     l990:
  5004  001C44  0E00               	movlw	0
  5005  001C46  140B               	andwf	___xxtofl@arg^0,w,c
  5006  001C48  6E05               	movwf	??___xxtofl^0,c
  5007  001C4A  0E00               	movlw	0
  5008  001C4C  140C               	andwf	(___xxtofl@arg+1)^0,w,c
  5009  001C4E  6E06               	movwf	(??___xxtofl+1)^0,c
  5010  001C50  0E00               	movlw	0
  5011  001C52  140D               	andwf	(___xxtofl@arg+2)^0,w,c
  5012  001C54  6E07               	movwf	(??___xxtofl+2)^0,c
  5013  001C56  0EFF               	movlw	255
  5014  001C58  140E               	andwf	(___xxtofl@arg+3)^0,w,c
  5015  001C5A  6E08               	movwf	(??___xxtofl+3)^0,c
  5016  001C5C  5005               	movf	??___xxtofl^0,w,c
  5017  001C5E  1006               	iorwf	(??___xxtofl+1)^0,w,c
  5018  001C60  1007               	iorwf	(??___xxtofl+2)^0,w,c
  5019  001C62  1008               	iorwf	(??___xxtofl+3)^0,w,c
  5020  001C64  A4D8               	btfss	status,2,c
  5021  001C66  EF37  F00E         	goto	u3271
  5022  001C6A  EF39  F00E         	goto	u3270
  5023  001C6E                     u3271:
  5024  001C6E  EF16  F00E         	goto	l3023
  5025  001C72                     u3270:
  5026  001C72  EF41  F00E         	goto	l3031
  5027  001C76                     l3029:
  5028  001C76  060A               	decf	___xxtofl@exp^0,f,c
  5029  001C78  90D8               	bcf	status,0,c
  5030  001C7A  360B               	rlcf	___xxtofl@arg^0,f,c
  5031  001C7C  360C               	rlcf	(___xxtofl@arg+1)^0,f,c
  5032  001C7E  360D               	rlcf	(___xxtofl@arg+2)^0,f,c
  5033  001C80  360E               	rlcf	(___xxtofl@arg+3)^0,f,c
  5034  001C82                     l3031:
  5035  001C82  BE0D               	btfsc	(___xxtofl@arg+2)^0,7,c
  5036  001C84  EF46  F00E         	goto	u3281
  5037  001C88  EF48  F00E         	goto	u3280
  5038  001C8C                     u3281:
  5039  001C8C  EF50  F00E         	goto	l997
  5040  001C90                     u3280:
  5041  001C90  0E02               	movlw	2
  5042  001C92  600A               	cpfslt	___xxtofl@exp^0,c
  5043  001C94  EF4E  F00E         	goto	u3291
  5044  001C98  EF50  F00E         	goto	u3290
  5045  001C9C                     u3291:
  5046  001C9C  EF3B  F00E         	goto	l3029
  5047  001CA0                     u3290:
  5048  001CA0                     l997:
  5049  001CA0  B00A               	btfsc	___xxtofl@exp^0,0,c
  5050  001CA2  EF55  F00E         	goto	u3301
  5051  001CA6  EF57  F00E         	goto	u3300
  5052  001CAA                     u3301:
  5053  001CAA  EF58  F00E         	goto	l3037
  5054  001CAE                     u3300:
  5055  001CAE  9E0D               	bcf	(___xxtofl@arg+2)^0,7,c
  5056  001CB0                     l3037:
  5057  001CB0  90D8               	bcf	status,0,c
  5058  001CB2  320A               	rrcf	___xxtofl@exp^0,f,c
  5059  001CB4  C00A  F005         	movff	___xxtofl@exp,??___xxtofl
  5060  001CB8  6A06               	clrf	(??___xxtofl+1)^0,c
  5061  001CBA  6A07               	clrf	(??___xxtofl+2)^0,c
  5062  001CBC  6A08               	clrf	(??___xxtofl+3)^0,c
  5063  001CBE  C005  F008         	movff	??___xxtofl,??___xxtofl+3
  5064  001CC2  6A07               	clrf	(??___xxtofl+2)^0,c
  5065  001CC4  6A06               	clrf	(??___xxtofl+1)^0,c
  5066  001CC6  6A05               	clrf	??___xxtofl^0,c
  5067  001CC8  5005               	movf	??___xxtofl^0,w,c
  5068  001CCA  120B               	iorwf	___xxtofl@arg^0,f,c
  5069  001CCC  5006               	movf	(??___xxtofl+1)^0,w,c
  5070  001CCE  120C               	iorwf	(___xxtofl@arg+1)^0,f,c
  5071  001CD0  5007               	movf	(??___xxtofl+2)^0,w,c
  5072  001CD2  120D               	iorwf	(___xxtofl@arg+2)^0,f,c
  5073  001CD4  5008               	movf	(??___xxtofl+3)^0,w,c
  5074  001CD6  120E               	iorwf	(___xxtofl@arg+3)^0,f,c
  5075  001CD8  5009               	movf	___xxtofl@sign^0,w,c
  5076  001CDA  B4D8               	btfsc	status,2,c
  5077  001CDC  EF72  F00E         	goto	u3311
  5078  001CE0  EF74  F00E         	goto	u3310
  5079  001CE4                     u3311:
  5080  001CE4  EF7C  F00E         	goto	l3047
  5081  001CE8                     u3310:
  5082  001CE8  BE04               	btfsc	(___xxtofl@val+3)^0,7,c
  5083  001CEA  EF7B  F00E         	goto	u3320
  5084  001CEE  EF79  F00E         	goto	u3321
  5085  001CF2                     u3321:
  5086  001CF2  EF7C  F00E         	goto	l3047
  5087  001CF6                     u3320:
  5088  001CF6  8E0E               	bsf	(___xxtofl@arg+3)^0,7,c
  5089  001CF8                     l3047:
  5090  001CF8  C00B  F001         	movff	___xxtofl@arg,?___xxtofl
  5091  001CFC  C00C  F002         	movff	___xxtofl@arg+1,?___xxtofl+1
  5092  001D00  C00D  F003         	movff	___xxtofl@arg+2,?___xxtofl+2
  5093  001D04  C00E  F004         	movff	___xxtofl@arg+3,?___xxtofl+3
  5094  001D08                     l986:
  5095  001D08  0012               	return		;funcret
  5096  001D0A                     __end_of___xxtofl:
  5097                           	callstack 0
  5098                           
  5099 ;; *************** function ___fltol *****************
  5100 ;; Defined at:
  5101 ;;		line 43 in file "C:\Program Files\Microchip\xc8\v2.32\pic\sources\c99\common\fltol.c"
  5102 ;; Parameters:    Size  Location     Type
  5103 ;;  f1              4   39[COMRAM] unsigned char 
  5104 ;; Auto vars:     Size  Location     Type
  5105 ;;  exp1            1   48[COMRAM] unsigned char 
  5106 ;;  sign1           1   47[COMRAM] unsigned char 
  5107 ;; Return value:  Size  Location     Type
  5108 ;;                  4   39[COMRAM] long 
  5109 ;; Registers used:
  5110 ;;		wreg, status,2, status,0
  5111 ;; Tracked objects:
  5112 ;;		On entry : 0/0
  5113 ;;		On exit  : 0/0
  5114 ;;		Unchanged: 0/0
  5115 ;; Data sizes:     COMRAM   BANK0   BANK1   BANK2   BANK3   BANK4   BANK5
  5116 ;;      Params:         4       0       0       0       0       0       0
  5117 ;;      Locals:         2       0       0       0       0       0       0
  5118 ;;      Temps:          4       0       0       0       0       0       0
  5119 ;;      Totals:        10       0       0       0       0       0       0
  5120 ;;Total ram usage:       10 bytes
  5121 ;; Hardware stack levels used: 1
  5122 ;; This function calls:
  5123 ;;		Nothing
  5124 ;; This function is called by:
  5125 ;;		_abastece
  5126 ;; This function uses a non-reentrant model
  5127 ;;
  5128                           
  5129                           	psect	text27
  5130  002160                     __ptext27:
  5131                           	callstack 0
  5132  002160                     ___fltol:
  5133                           	callstack 29
  5134  002160  342A               	rlcf	(___fltol@f1+2)^0,w,c
  5135  002162  342B               	rlcf	(___fltol@f1+3)^0,w,c
  5136  002164  6E31               	movwf	___fltol@exp1^0,c
  5137  002166  5031               	movf	___fltol@exp1^0,w,c
  5138  002168  A4D8               	btfss	status,2,c
  5139  00216A  EFB9  F010         	goto	u3161
  5140  00216E  EFBB  F010         	goto	u3160
  5141  002172                     u3161:
  5142  002172  EFC5  F010         	goto	l2967
  5143  002176                     u3160:
  5144  002176                     l2963:
  5145  002176  0E00               	movlw	0
  5146  002178  6E28               	movwf	?___fltol^0,c
  5147  00217A  0E00               	movlw	0
  5148  00217C  6E29               	movwf	(?___fltol+1)^0,c
  5149  00217E  0E00               	movlw	0
  5150  002180  6E2A               	movwf	(?___fltol+2)^0,c
  5151  002182  0E00               	movlw	0
  5152  002184  6E2B               	movwf	(?___fltol+3)^0,c
  5153  002186  EF32  F011         	goto	l625
  5154  00218A                     l2967:
  5155  00218A  C028  F02C         	movff	___fltol@f1,??___fltol
  5156  00218E  C029  F02D         	movff	___fltol@f1+1,??___fltol+1
  5157  002192  C02A  F02E         	movff	___fltol@f1+2,??___fltol+2
  5158  002196  C02B  F02F         	movff	___fltol@f1+3,??___fltol+3
  5159  00219A  0E20               	movlw	32
  5160  00219C  EFD5  F010         	goto	u3170
  5161  0021A0                     u3175:
  5162  0021A0  90D8               	bcf	status,0,c
  5163  0021A2  322F               	rrcf	(??___fltol+3)^0,f,c
  5164  0021A4  322E               	rrcf	(??___fltol+2)^0,f,c
  5165  0021A6  322D               	rrcf	(??___fltol+1)^0,f,c
  5166  0021A8  322C               	rrcf	??___fltol^0,f,c
  5167  0021AA                     u3170:
  5168  0021AA  2EE8               	decfsz	wreg,f,c
  5169  0021AC  EFD0  F010         	goto	u3175
  5170  0021B0  502C               	movf	??___fltol^0,w,c
  5171  0021B2  6E30               	movwf	___fltol@sign1^0,c
  5172  0021B4  8E2A               	bsf	(___fltol@f1+2)^0,7,c
  5173  0021B6  0EFF               	movlw	255
  5174  0021B8  1628               	andwf	___fltol@f1^0,f,c
  5175  0021BA  0EFF               	movlw	255
  5176  0021BC  1629               	andwf	(___fltol@f1+1)^0,f,c
  5177  0021BE  0EFF               	movlw	255
  5178  0021C0  162A               	andwf	(___fltol@f1+2)^0,f,c
  5179  0021C2  0E00               	movlw	0
  5180  0021C4  162B               	andwf	(___fltol@f1+3)^0,f,c
  5181  0021C6  0E96               	movlw	150
  5182  0021C8  5E31               	subwf	___fltol@exp1^0,f,c
  5183  0021CA  BE31               	btfsc	___fltol@exp1^0,7,c
  5184  0021CC  EFEC  F010         	goto	u3180
  5185  0021D0  EFEA  F010         	goto	u3181
  5186  0021D4                     u3181:
  5187  0021D4  EF02  F011         	goto	l2987
  5188  0021D8                     u3180:
  5189  0021D8  5031               	movf	___fltol@exp1^0,w,c
  5190  0021DA  0A80               	xorlw	128
  5191  0021DC  0F97               	addlw	151
  5192  0021DE  B0D8               	btfsc	status,0,c
  5193  0021E0  EFF4  F010         	goto	u3191
  5194  0021E4  EFF6  F010         	goto	u3190
  5195  0021E8                     u3191:
  5196  0021E8  EFF8  F010         	goto	l2983
  5197  0021EC                     u3190:
  5198  0021EC  EFBB  F010         	goto	l2963
  5199  0021F0                     l2983:
  5200  0021F0  90D8               	bcf	status,0,c
  5201  0021F2  322B               	rrcf	(___fltol@f1+3)^0,f,c
  5202  0021F4  322A               	rrcf	(___fltol@f1+2)^0,f,c
  5203  0021F6  3229               	rrcf	(___fltol@f1+1)^0,f,c
  5204  0021F8  3228               	rrcf	___fltol@f1^0,f,c
  5205  0021FA  3E31               	incfsz	___fltol@exp1^0,f,c
  5206  0021FC  EFF8  F010         	goto	l2983
  5207  002200  EF1A  F011         	goto	l2997
  5208  002204                     l2987:
  5209  002204  0E1F               	movlw	31
  5210  002206  6431               	cpfsgt	___fltol@exp1^0,c
  5211  002208  EF08  F011         	goto	u3201
  5212  00220C  EF0A  F011         	goto	u3200
  5213  002210                     u3201:
  5214  002210  EF12  F011         	goto	l2995
  5215  002214                     u3200:
  5216  002214  EFBB  F010         	goto	l2963
  5217  002218                     l2993:
  5218  002218  90D8               	bcf	status,0,c
  5219  00221A  3628               	rlcf	___fltol@f1^0,f,c
  5220  00221C  3629               	rlcf	(___fltol@f1+1)^0,f,c
  5221  00221E  362A               	rlcf	(___fltol@f1+2)^0,f,c
  5222  002220  362B               	rlcf	(___fltol@f1+3)^0,f,c
  5223  002222  0631               	decf	___fltol@exp1^0,f,c
  5224  002224                     l2995:
  5225  002224  5031               	movf	___fltol@exp1^0,w,c
  5226  002226  A4D8               	btfss	status,2,c
  5227  002228  EF18  F011         	goto	u3211
  5228  00222C  EF1A  F011         	goto	u3210
  5229  002230                     u3211:
  5230  002230  EF0C  F011         	goto	l2993
  5231  002234                     u3210:
  5232  002234                     l2997:
  5233  002234  5030               	movf	___fltol@sign1^0,w,c
  5234  002236  B4D8               	btfsc	status,2,c
  5235  002238  EF20  F011         	goto	u3221
  5236  00223C  EF22  F011         	goto	u3220
  5237  002240                     u3221:
  5238  002240  EF2A  F011         	goto	l3001
  5239  002244                     u3220:
  5240  002244  1E2B               	comf	(___fltol@f1+3)^0,f,c
  5241  002246  1E2A               	comf	(___fltol@f1+2)^0,f,c
  5242  002248  1E29               	comf	(___fltol@f1+1)^0,f,c
  5243  00224A  6C28               	negf	___fltol@f1^0,c
  5244  00224C  0E00               	movlw	0
  5245  00224E  2229               	addwfc	(___fltol@f1+1)^0,f,c
  5246  002250  222A               	addwfc	(___fltol@f1+2)^0,f,c
  5247  002252  222B               	addwfc	(___fltol@f1+3)^0,f,c
  5248  002254                     l3001:
  5249  002254  C028  F028         	movff	___fltol@f1,?___fltol
  5250  002258  C029  F029         	movff	___fltol@f1+1,?___fltol+1
  5251  00225C  C02A  F02A         	movff	___fltol@f1+2,?___fltol+2
  5252  002260  C02B  F02B         	movff	___fltol@f1+3,?___fltol+3
  5253  002264                     l625:
  5254  002264  0012               	return		;funcret
  5255  002266                     __end_of___fltol:
  5256                           	callstack 0
  5257                           
  5258 ;; *************** function ___flmul *****************
  5259 ;; Defined at:
  5260 ;;		line 8 in file "C:\Program Files\Microchip\xc8\v2.32\pic\sources\c99\common\sprcmul.c"
  5261 ;; Parameters:    Size  Location     Type
  5262 ;;  b               4   14[COMRAM] long 
  5263 ;;  a               4   18[COMRAM] long 
  5264 ;; Auto vars:     Size  Location     Type
  5265 ;;  prod            4   33[COMRAM] struct .
  5266 ;;  grs             4   27[COMRAM] unsigned long 
  5267 ;;  temp            2   37[COMRAM] struct .
  5268 ;;  bexp            1   32[COMRAM] unsigned char 
  5269 ;;  aexp            1   31[COMRAM] unsigned char 
  5270 ;;  sign            1   26[COMRAM] unsigned char 
  5271 ;; Return value:  Size  Location     Type
  5272 ;;                  4   14[COMRAM] unsigned char 
  5273 ;; Registers used:
  5274 ;;		wreg, status,2, status,0, prodl, prodh
  5275 ;; Tracked objects:
  5276 ;;		On entry : 0/0
  5277 ;;		On exit  : 0/0
  5278 ;;		Unchanged: 0/0
  5279 ;; Data sizes:     COMRAM   BANK0   BANK1   BANK2   BANK3   BANK4   BANK5
  5280 ;;      Params:         8       0       0       0       0       0       0
  5281 ;;      Locals:        13       0       0       0       0       0       0
  5282 ;;      Temps:          4       0       0       0       0       0       0
  5283 ;;      Totals:        25       0       0       0       0       0       0
  5284 ;;Total ram usage:       25 bytes
  5285 ;; Hardware stack levels used: 1
  5286 ;; This function calls:
  5287 ;;		Nothing
  5288 ;; This function is called by:
  5289 ;;		_abastece
  5290 ;; This function uses a non-reentrant model
  5291 ;;
  5292                           
  5293                           	psect	text28
  5294  000FC2                     __ptext28:
  5295                           	callstack 0
  5296  000FC2                     ___flmul:
  5297                           	callstack 29
  5298  000FC2  5012               	movf	(___flmul@b+3)^0,w,c
  5299  000FC4  0B80               	andlw	128
  5300  000FC6  6E1B               	movwf	___flmul@sign^0,c
  5301  000FC8  5012               	movf	(___flmul@b+3)^0,w,c
  5302  000FCA  2412               	addwf	(___flmul@b+3)^0,w,c
  5303  000FCC  6E21               	movwf	___flmul@bexp^0,c
  5304  000FCE  AE11               	btfss	(___flmul@b+2)^0,7,c
  5305  000FD0  EFEC  F007         	goto	u2921
  5306  000FD4  EFEE  F007         	goto	u2920
  5307  000FD8                     u2921:
  5308  000FD8  EFEF  F007         	goto	l2815
  5309  000FDC                     u2920:
  5310  000FDC  8021               	bsf	___flmul@bexp^0,0,c
  5311  000FDE                     l2815:
  5312  000FDE  5021               	movf	___flmul@bexp^0,w,c
  5313  000FE0  B4D8               	btfsc	status,2,c
  5314  000FE2  EFF5  F007         	goto	u2931
  5315  000FE6  EFF7  F007         	goto	u2930
  5316  000FEA                     u2931:
  5317  000FEA  EF0A  F008         	goto	l2823
  5318  000FEE                     u2930:
  5319  000FEE  2821               	incf	___flmul@bexp^0,w,c
  5320  000FF0  A4D8               	btfss	status,2,c
  5321  000FF2  EFFD  F007         	goto	u2941
  5322  000FF6  EFFF  F007         	goto	u2940
  5323  000FFA                     u2941:
  5324  000FFA  EF07  F008         	goto	l2821
  5325  000FFE                     u2940:
  5326  000FFE  0E00               	movlw	0
  5327  001000  6E0F               	movwf	___flmul@b^0,c
  5328  001002  0E00               	movlw	0
  5329  001004  6E10               	movwf	(___flmul@b+1)^0,c
  5330  001006  0E00               	movlw	0
  5331  001008  6E11               	movwf	(___flmul@b+2)^0,c
  5332  00100A  0E00               	movlw	0
  5333  00100C  6E12               	movwf	(___flmul@b+3)^0,c
  5334  00100E                     l2821:
  5335  00100E  8E11               	bsf	(___flmul@b+2)^0,7,c
  5336  001010  EF12  F008         	goto	l2825
  5337  001014                     l2823:
  5338  001014  0E00               	movlw	0
  5339  001016  6E0F               	movwf	___flmul@b^0,c
  5340  001018  0E00               	movlw	0
  5341  00101A  6E10               	movwf	(___flmul@b+1)^0,c
  5342  00101C  0E00               	movlw	0
  5343  00101E  6E11               	movwf	(___flmul@b+2)^0,c
  5344  001020  0E00               	movlw	0
  5345  001022  6E12               	movwf	(___flmul@b+3)^0,c
  5346  001024                     l2825:
  5347  001024  5016               	movf	(___flmul@a+3)^0,w,c
  5348  001026  0B80               	andlw	128
  5349  001028  1A1B               	xorwf	___flmul@sign^0,f,c
  5350  00102A  5016               	movf	(___flmul@a+3)^0,w,c
  5351  00102C  2416               	addwf	(___flmul@a+3)^0,w,c
  5352  00102E  6E20               	movwf	___flmul@aexp^0,c
  5353  001030  AE15               	btfss	(___flmul@a+2)^0,7,c
  5354  001032  EF1D  F008         	goto	u2951
  5355  001036  EF1F  F008         	goto	u2950
  5356  00103A                     u2951:
  5357  00103A  EF20  F008         	goto	l2833
  5358  00103E                     u2950:
  5359  00103E  8020               	bsf	___flmul@aexp^0,0,c
  5360  001040                     l2833:
  5361  001040  5020               	movf	___flmul@aexp^0,w,c
  5362  001042  B4D8               	btfsc	status,2,c
  5363  001044  EF26  F008         	goto	u2961
  5364  001048  EF28  F008         	goto	u2960
  5365  00104C                     u2961:
  5366  00104C  EF3B  F008         	goto	l2841
  5367  001050                     u2960:
  5368  001050  2820               	incf	___flmul@aexp^0,w,c
  5369  001052  A4D8               	btfss	status,2,c
  5370  001054  EF2E  F008         	goto	u2971
  5371  001058  EF30  F008         	goto	u2970
  5372  00105C                     u2971:
  5373  00105C  EF38  F008         	goto	l2839
  5374  001060                     u2970:
  5375  001060  0E00               	movlw	0
  5376  001062  6E13               	movwf	___flmul@a^0,c
  5377  001064  0E00               	movlw	0
  5378  001066  6E14               	movwf	(___flmul@a+1)^0,c
  5379  001068  0E00               	movlw	0
  5380  00106A  6E15               	movwf	(___flmul@a+2)^0,c
  5381  00106C  0E00               	movlw	0
  5382  00106E  6E16               	movwf	(___flmul@a+3)^0,c
  5383  001070                     l2839:
  5384  001070  8E15               	bsf	(___flmul@a+2)^0,7,c
  5385  001072  EF43  F008         	goto	l942
  5386  001076                     l2841:
  5387  001076  0E00               	movlw	0
  5388  001078  6E13               	movwf	___flmul@a^0,c
  5389  00107A  0E00               	movlw	0
  5390  00107C  6E14               	movwf	(___flmul@a+1)^0,c
  5391  00107E  0E00               	movlw	0
  5392  001080  6E15               	movwf	(___flmul@a+2)^0,c
  5393  001082  0E00               	movlw	0
  5394  001084  6E16               	movwf	(___flmul@a+3)^0,c
  5395  001086                     l942:
  5396  001086  5020               	movf	___flmul@aexp^0,w,c
  5397  001088  B4D8               	btfsc	status,2,c
  5398  00108A  EF49  F008         	goto	u2981
  5399  00108E  EF4B  F008         	goto	u2980
  5400  001092                     u2981:
  5401  001092  EF53  F008         	goto	l2845
  5402  001096                     u2980:
  5403  001096  5021               	movf	___flmul@bexp^0,w,c
  5404  001098  A4D8               	btfss	status,2,c
  5405  00109A  EF51  F008         	goto	u2991
  5406  00109E  EF53  F008         	goto	u2990
  5407  0010A2                     u2991:
  5408  0010A2  EF5D  F008         	goto	l2849
  5409  0010A6                     u2990:
  5410  0010A6                     l2845:
  5411  0010A6  0E00               	movlw	0
  5412  0010A8  6E0F               	movwf	?___flmul^0,c
  5413  0010AA  0E00               	movlw	0
  5414  0010AC  6E10               	movwf	(?___flmul+1)^0,c
  5415  0010AE  0E00               	movlw	0
  5416  0010B0  6E11               	movwf	(?___flmul+2)^0,c
  5417  0010B2  0E00               	movlw	0
  5418  0010B4  6E12               	movwf	(?___flmul+3)^0,c
  5419  0010B6  EFF5  F009         	goto	l946
  5420  0010BA                     l2849:
  5421  0010BA  5015               	movf	(___flmul@a+2)^0,w,c
  5422  0010BC  020F               	mulwf	___flmul@b^0,c
  5423  0010BE  CFF3 F026          	movff	prodl,___flmul@temp
  5424  0010C2  CFF4 F027          	movff	prodh,___flmul@temp+1
  5425  0010C6  5026               	movf	___flmul@temp^0,w,c
  5426  0010C8  6E1C               	movwf	___flmul@grs^0,c
  5427  0010CA  6A1D               	clrf	(___flmul@grs+1)^0,c
  5428  0010CC  6A1E               	clrf	(___flmul@grs+2)^0,c
  5429  0010CE  6A1F               	clrf	(___flmul@grs+3)^0,c
  5430  0010D0  5027               	movf	(___flmul@temp+1)^0,w,c
  5431  0010D2  6E22               	movwf	___flmul@prod^0,c
  5432  0010D4  6A23               	clrf	(___flmul@prod+1)^0,c
  5433  0010D6  6A24               	clrf	(___flmul@prod+2)^0,c
  5434  0010D8  6A25               	clrf	(___flmul@prod+3)^0,c
  5435  0010DA  5014               	movf	(___flmul@a+1)^0,w,c
  5436  0010DC  0210               	mulwf	(___flmul@b+1)^0,c
  5437  0010DE  CFF3 F026          	movff	prodl,___flmul@temp
  5438  0010E2  CFF4 F027          	movff	prodh,___flmul@temp+1
  5439  0010E6  5026               	movf	___flmul@temp^0,w,c
  5440  0010E8  261C               	addwf	___flmul@grs^0,f,c
  5441  0010EA  0E00               	movlw	0
  5442  0010EC  221D               	addwfc	(___flmul@grs+1)^0,f,c
  5443  0010EE  221E               	addwfc	(___flmul@grs+2)^0,f,c
  5444  0010F0  221F               	addwfc	(___flmul@grs+3)^0,f,c
  5445  0010F2  5027               	movf	(___flmul@temp+1)^0,w,c
  5446  0010F4  2622               	addwf	___flmul@prod^0,f,c
  5447  0010F6  0E00               	movlw	0
  5448  0010F8  2223               	addwfc	(___flmul@prod+1)^0,f,c
  5449  0010FA  2224               	addwfc	(___flmul@prod+2)^0,f,c
  5450  0010FC  2225               	addwfc	(___flmul@prod+3)^0,f,c
  5451  0010FE  5013               	movf	___flmul@a^0,w,c
  5452  001100  0211               	mulwf	(___flmul@b+2)^0,c
  5453  001102  CFF3 F026          	movff	prodl,___flmul@temp
  5454  001106  CFF4 F027          	movff	prodh,___flmul@temp+1
  5455  00110A  5026               	movf	___flmul@temp^0,w,c
  5456  00110C  261C               	addwf	___flmul@grs^0,f,c
  5457  00110E  0E00               	movlw	0
  5458  001110  221D               	addwfc	(___flmul@grs+1)^0,f,c
  5459  001112  221E               	addwfc	(___flmul@grs+2)^0,f,c
  5460  001114  221F               	addwfc	(___flmul@grs+3)^0,f,c
  5461  001116  5027               	movf	(___flmul@temp+1)^0,w,c
  5462  001118  2622               	addwf	___flmul@prod^0,f,c
  5463  00111A  0E00               	movlw	0
  5464  00111C  2223               	addwfc	(___flmul@prod+1)^0,f,c
  5465  00111E  2224               	addwfc	(___flmul@prod+2)^0,f,c
  5466  001120  2225               	addwfc	(___flmul@prod+3)^0,f,c
  5467  001122  C01E  F01F         	movff	___flmul@grs+2,___flmul@grs+3
  5468  001126  C01D  F01E         	movff	___flmul@grs+1,___flmul@grs+2
  5469  00112A  C01C  F01D         	movff	___flmul@grs,___flmul@grs+1
  5470  00112E  6A1C               	clrf	___flmul@grs^0,c
  5471  001130  5013               	movf	___flmul@a^0,w,c
  5472  001132  0210               	mulwf	(___flmul@b+1)^0,c
  5473  001134  CFF3 F026          	movff	prodl,___flmul@temp
  5474  001138  CFF4 F027          	movff	prodh,___flmul@temp+1
  5475  00113C  5026               	movf	___flmul@temp^0,w,c
  5476  00113E  261C               	addwf	___flmul@grs^0,f,c
  5477  001140  5027               	movf	(___flmul@temp+1)^0,w,c
  5478  001142  221D               	addwfc	(___flmul@grs+1)^0,f,c
  5479  001144  0E00               	movlw	0
  5480  001146  221E               	addwfc	(___flmul@grs+2)^0,f,c
  5481  001148  0E00               	movlw	0
  5482  00114A  221F               	addwfc	(___flmul@grs+3)^0,f,c
  5483  00114C  5014               	movf	(___flmul@a+1)^0,w,c
  5484  00114E  020F               	mulwf	___flmul@b^0,c
  5485  001150  CFF3 F026          	movff	prodl,___flmul@temp
  5486  001154  CFF4 F027          	movff	prodh,___flmul@temp+1
  5487  001158  5026               	movf	___flmul@temp^0,w,c
  5488  00115A  261C               	addwf	___flmul@grs^0,f,c
  5489  00115C  5027               	movf	(___flmul@temp+1)^0,w,c
  5490  00115E  221D               	addwfc	(___flmul@grs+1)^0,f,c
  5491  001160  0E00               	movlw	0
  5492  001162  221E               	addwfc	(___flmul@grs+2)^0,f,c
  5493  001164  0E00               	movlw	0
  5494  001166  221F               	addwfc	(___flmul@grs+3)^0,f,c
  5495  001168  C01E  F01F         	movff	___flmul@grs+2,___flmul@grs+3
  5496  00116C  C01D  F01E         	movff	___flmul@grs+1,___flmul@grs+2
  5497  001170  C01C  F01D         	movff	___flmul@grs,___flmul@grs+1
  5498  001174  6A1C               	clrf	___flmul@grs^0,c
  5499  001176  5013               	movf	___flmul@a^0,w,c
  5500  001178  020F               	mulwf	___flmul@b^0,c
  5501  00117A  CFF3 F026          	movff	prodl,___flmul@temp
  5502  00117E  CFF4 F027          	movff	prodh,___flmul@temp+1
  5503  001182  5026               	movf	___flmul@temp^0,w,c
  5504  001184  261C               	addwf	___flmul@grs^0,f,c
  5505  001186  5027               	movf	(___flmul@temp+1)^0,w,c
  5506  001188  221D               	addwfc	(___flmul@grs+1)^0,f,c
  5507  00118A  0E00               	movlw	0
  5508  00118C  221E               	addwfc	(___flmul@grs+2)^0,f,c
  5509  00118E  0E00               	movlw	0
  5510  001190  221F               	addwfc	(___flmul@grs+3)^0,f,c
  5511  001192  5015               	movf	(___flmul@a+2)^0,w,c
  5512  001194  0210               	mulwf	(___flmul@b+1)^0,c
  5513  001196  CFF3 F026          	movff	prodl,___flmul@temp
  5514  00119A  CFF4 F027          	movff	prodh,___flmul@temp+1
  5515  00119E  5026               	movf	___flmul@temp^0,w,c
  5516  0011A0  2622               	addwf	___flmul@prod^0,f,c
  5517  0011A2  5027               	movf	(___flmul@temp+1)^0,w,c
  5518  0011A4  2223               	addwfc	(___flmul@prod+1)^0,f,c
  5519  0011A6  0E00               	movlw	0
  5520  0011A8  2224               	addwfc	(___flmul@prod+2)^0,f,c
  5521  0011AA  0E00               	movlw	0
  5522  0011AC  2225               	addwfc	(___flmul@prod+3)^0,f,c
  5523  0011AE  5014               	movf	(___flmul@a+1)^0,w,c
  5524  0011B0  0211               	mulwf	(___flmul@b+2)^0,c
  5525  0011B2  CFF3 F026          	movff	prodl,___flmul@temp
  5526  0011B6  CFF4 F027          	movff	prodh,___flmul@temp+1
  5527  0011BA  5026               	movf	___flmul@temp^0,w,c
  5528  0011BC  2622               	addwf	___flmul@prod^0,f,c
  5529  0011BE  5027               	movf	(___flmul@temp+1)^0,w,c
  5530  0011C0  2223               	addwfc	(___flmul@prod+1)^0,f,c
  5531  0011C2  0E00               	movlw	0
  5532  0011C4  2224               	addwfc	(___flmul@prod+2)^0,f,c
  5533  0011C6  0E00               	movlw	0
  5534  0011C8  2225               	addwfc	(___flmul@prod+3)^0,f,c
  5535  0011CA  5015               	movf	(___flmul@a+2)^0,w,c
  5536  0011CC  0211               	mulwf	(___flmul@b+2)^0,c
  5537  0011CE  CFF3 F026          	movff	prodl,___flmul@temp
  5538  0011D2  CFF4 F027          	movff	prodh,___flmul@temp+1
  5539  0011D6  5026               	movf	___flmul@temp^0,w,c
  5540  0011D8  6E17               	movwf	??___flmul^0,c
  5541  0011DA  5027               	movf	(___flmul@temp+1)^0,w,c
  5542  0011DC  6E18               	movwf	(??___flmul+1)^0,c
  5543  0011DE  6A19               	clrf	(??___flmul+2)^0,c
  5544  0011E0  6A1A               	clrf	(??___flmul+3)^0,c
  5545  0011E2  C019  F01A         	movff	??___flmul+2,??___flmul+3
  5546  0011E6  C018  F019         	movff	??___flmul+1,??___flmul+2
  5547  0011EA  C017  F018         	movff	??___flmul,??___flmul+1
  5548  0011EE  6A17               	clrf	??___flmul^0,c
  5549  0011F0  5017               	movf	??___flmul^0,w,c
  5550  0011F2  2622               	addwf	___flmul@prod^0,f,c
  5551  0011F4  5018               	movf	(??___flmul+1)^0,w,c
  5552  0011F6  2223               	addwfc	(___flmul@prod+1)^0,f,c
  5553  0011F8  5019               	movf	(??___flmul+2)^0,w,c
  5554  0011FA  2224               	addwfc	(___flmul@prod+2)^0,f,c
  5555  0011FC  501A               	movf	(??___flmul+3)^0,w,c
  5556  0011FE  2225               	addwfc	(___flmul@prod+3)^0,f,c
  5557  001200  C01C  F017         	movff	___flmul@grs,??___flmul
  5558  001204  C01D  F018         	movff	___flmul@grs+1,??___flmul+1
  5559  001208  C01E  F019         	movff	___flmul@grs+2,??___flmul+2
  5560  00120C  C01F  F01A         	movff	___flmul@grs+3,??___flmul+3
  5561  001210  0E19               	movlw	25
  5562  001212  EF10  F009         	goto	u3000
  5563  001216                     u3005:
  5564  001216  90D8               	bcf	status,0,c
  5565  001218  321A               	rrcf	(??___flmul+3)^0,f,c
  5566  00121A  3219               	rrcf	(??___flmul+2)^0,f,c
  5567  00121C  3218               	rrcf	(??___flmul+1)^0,f,c
  5568  00121E  3217               	rrcf	??___flmul^0,f,c
  5569  001220                     u3000:
  5570  001220  2EE8               	decfsz	wreg,f,c
  5571  001222  EF0B  F009         	goto	u3005
  5572  001226  5017               	movf	??___flmul^0,w,c
  5573  001228  2622               	addwf	___flmul@prod^0,f,c
  5574  00122A  5018               	movf	(??___flmul+1)^0,w,c
  5575  00122C  2223               	addwfc	(___flmul@prod+1)^0,f,c
  5576  00122E  5019               	movf	(??___flmul+2)^0,w,c
  5577  001230  2224               	addwfc	(___flmul@prod+2)^0,f,c
  5578  001232  501A               	movf	(??___flmul+3)^0,w,c
  5579  001234  2225               	addwfc	(___flmul@prod+3)^0,f,c
  5580  001236  C01E  F01F         	movff	___flmul@grs+2,___flmul@grs+3
  5581  00123A  C01D  F01E         	movff	___flmul@grs+1,___flmul@grs+2
  5582  00123E  C01C  F01D         	movff	___flmul@grs,___flmul@grs+1
  5583  001242  6A1C               	clrf	___flmul@grs^0,c
  5584  001244  5020               	movf	___flmul@aexp^0,w,c
  5585  001246  C021  F017         	movff	___flmul@bexp,??___flmul
  5586  00124A  6A18               	clrf	(??___flmul+1)^0,c
  5587  00124C  2617               	addwf	??___flmul^0,f,c
  5588  00124E  0E00               	movlw	0
  5589  001250  2218               	addwfc	(??___flmul+1)^0,f,c
  5590  001252  0E82               	movlw	130
  5591  001254  2417               	addwf	??___flmul^0,w,c
  5592  001256  6E26               	movwf	___flmul@temp^0,c
  5593  001258  0EFF               	movlw	255
  5594  00125A  2018               	addwfc	(??___flmul+1)^0,w,c
  5595  00125C  6E27               	movwf	(___flmul@temp+1)^0,c
  5596  00125E  EF46  F009         	goto	l2897
  5597  001262                     l2891:
  5598  001262  90D8               	bcf	status,0,c
  5599  001264  3622               	rlcf	___flmul@prod^0,f,c
  5600  001266  3623               	rlcf	(___flmul@prod+1)^0,f,c
  5601  001268  3624               	rlcf	(___flmul@prod+2)^0,f,c
  5602  00126A  3625               	rlcf	(___flmul@prod+3)^0,f,c
  5603  00126C  AE1F               	btfss	(___flmul@grs+3)^0,7,c
  5604  00126E  EF3B  F009         	goto	u3011
  5605  001272  EF3D  F009         	goto	u3010
  5606  001276                     u3011:
  5607  001276  EF3E  F009         	goto	l949
  5608  00127A                     u3010:
  5609  00127A  8022               	bsf	___flmul@prod^0,0,c
  5610  00127C                     l949:
  5611  00127C  90D8               	bcf	status,0,c
  5612  00127E  361C               	rlcf	___flmul@grs^0,f,c
  5613  001280  361D               	rlcf	(___flmul@grs+1)^0,f,c
  5614  001282  361E               	rlcf	(___flmul@grs+2)^0,f,c
  5615  001284  361F               	rlcf	(___flmul@grs+3)^0,f,c
  5616  001286  0626               	decf	___flmul@temp^0,f,c
  5617  001288  A0D8               	btfss	status,0,c
  5618  00128A  0627               	decf	(___flmul@temp+1)^0,f,c
  5619  00128C                     l2897:
  5620  00128C  AE24               	btfss	(___flmul@prod+2)^0,7,c
  5621  00128E  EF4B  F009         	goto	u3021
  5622  001292  EF4D  F009         	goto	u3020
  5623  001296                     u3021:
  5624  001296  EF31  F009         	goto	l2891
  5625  00129A                     u3020:
  5626  00129A  0E00               	movlw	0
  5627  00129C  6E20               	movwf	___flmul@aexp^0,c
  5628  00129E  AE1F               	btfss	(___flmul@grs+3)^0,7,c
  5629  0012A0  EF54  F009         	goto	u3031
  5630  0012A4  EF56  F009         	goto	u3030
  5631  0012A8                     u3031:
  5632  0012A8  EF7A  F009         	goto	l951
  5633  0012AC                     u3030:
  5634  0012AC  0EFF               	movlw	255
  5635  0012AE  141C               	andwf	___flmul@grs^0,w,c
  5636  0012B0  6E17               	movwf	??___flmul^0,c
  5637  0012B2  0EFF               	movlw	255
  5638  0012B4  141D               	andwf	(___flmul@grs+1)^0,w,c
  5639  0012B6  6E18               	movwf	(??___flmul+1)^0,c
  5640  0012B8  0EFF               	movlw	255
  5641  0012BA  141E               	andwf	(___flmul@grs+2)^0,w,c
  5642  0012BC  6E19               	movwf	(??___flmul+2)^0,c
  5643  0012BE  0E7F               	movlw	127
  5644  0012C0  141F               	andwf	(___flmul@grs+3)^0,w,c
  5645  0012C2  6E1A               	movwf	(??___flmul+3)^0,c
  5646  0012C4  5017               	movf	??___flmul^0,w,c
  5647  0012C6  1018               	iorwf	(??___flmul+1)^0,w,c
  5648  0012C8  1019               	iorwf	(??___flmul+2)^0,w,c
  5649  0012CA  101A               	iorwf	(??___flmul+3)^0,w,c
  5650  0012CC  B4D8               	btfsc	status,2,c
  5651  0012CE  EF6B  F009         	goto	u3041
  5652  0012D2  EF6D  F009         	goto	u3040
  5653  0012D6                     u3041:
  5654  0012D6  EF71  F009         	goto	l952
  5655  0012DA                     u3040:
  5656  0012DA                     l2905:
  5657  0012DA  0E01               	movlw	1
  5658  0012DC  6E20               	movwf	___flmul@aexp^0,c
  5659  0012DE  EF7A  F009         	goto	l951
  5660  0012E2                     l952:
  5661  0012E2  A022               	btfss	___flmul@prod^0,0,c
  5662  0012E4  EF76  F009         	goto	u3051
  5663  0012E8  EF78  F009         	goto	u3050
  5664  0012EC                     u3051:
  5665  0012EC  EF7A  F009         	goto	l951
  5666  0012F0                     u3050:
  5667  0012F0  EF6D  F009         	goto	l2905
  5668  0012F4                     l951:
  5669  0012F4  5020               	movf	___flmul@aexp^0,w,c
  5670  0012F6  B4D8               	btfsc	status,2,c
  5671  0012F8  EF80  F009         	goto	u3061
  5672  0012FC  EF82  F009         	goto	u3060
  5673  001300                     u3061:
  5674  001300  EFA6  F009         	goto	l2917
  5675  001304                     u3060:
  5676  001304  0E01               	movlw	1
  5677  001306  2622               	addwf	___flmul@prod^0,f,c
  5678  001308  0E00               	movlw	0
  5679  00130A  2223               	addwfc	(___flmul@prod+1)^0,f,c
  5680  00130C  2224               	addwfc	(___flmul@prod+2)^0,f,c
  5681  00130E  2225               	addwfc	(___flmul@prod+3)^0,f,c
  5682  001310  A025               	btfss	(___flmul@prod+3)^0,0,c
  5683  001312  EF8D  F009         	goto	u3071
  5684  001316  EF8F  F009         	goto	u3070
  5685  00131A                     u3071:
  5686  00131A  EFA6  F009         	goto	l2917
  5687  00131E                     u3070:
  5688  00131E  C022  F017         	movff	___flmul@prod,??___flmul
  5689  001322  C023  F018         	movff	___flmul@prod+1,??___flmul+1
  5690  001326  C024  F019         	movff	___flmul@prod+2,??___flmul+2
  5691  00132A  C025  F01A         	movff	___flmul@prod+3,??___flmul+3
  5692  00132E  341A               	rlcf	(??___flmul+3)^0,w,c
  5693  001330  321A               	rrcf	(??___flmul+3)^0,f,c
  5694  001332  3219               	rrcf	(??___flmul+2)^0,f,c
  5695  001334  3218               	rrcf	(??___flmul+1)^0,f,c
  5696  001336  3217               	rrcf	??___flmul^0,f,c
  5697  001338  C017  F022         	movff	??___flmul,___flmul@prod
  5698  00133C  C018  F023         	movff	??___flmul+1,___flmul@prod+1
  5699  001340  C019  F024         	movff	??___flmul+2,___flmul@prod+2
  5700  001344  C01A  F025         	movff	??___flmul+3,___flmul@prod+3
  5701  001348  4A26               	infsnz	___flmul@temp^0,f,c
  5702  00134A  2A27               	incf	(___flmul@temp+1)^0,f,c
  5703  00134C                     l2917:
  5704  00134C  BE27               	btfsc	(___flmul@temp+1)^0,7,c
  5705  00134E  EFB1  F009         	goto	u3081
  5706  001352  5027               	movf	(___flmul@temp+1)^0,w,c
  5707  001354  E108               	bnz	u3080
  5708  001356  2826               	incf	___flmul@temp^0,w,c
  5709  001358  A0D8               	btfss	status,0,c
  5710  00135A  EFB1  F009         	goto	u3081
  5711  00135E  EFB3  F009         	goto	u3080
  5712  001362                     u3081:
  5713  001362  EFBD  F009         	goto	l2921
  5714  001366                     u3080:
  5715  001366  0E00               	movlw	0
  5716  001368  6E22               	movwf	___flmul@prod^0,c
  5717  00136A  0E00               	movlw	0
  5718  00136C  6E23               	movwf	(___flmul@prod+1)^0,c
  5719  00136E  0E80               	movlw	128
  5720  001370  6E24               	movwf	(___flmul@prod+2)^0,c
  5721  001372  0E7F               	movlw	127
  5722  001374  6E25               	movwf	(___flmul@prod+3)^0,c
  5723  001376  EFEB  F009         	goto	l2933
  5724  00137A                     l2921:
  5725  00137A  BE27               	btfsc	(___flmul@temp+1)^0,7,c
  5726  00137C  EFCA  F009         	goto	u3090
  5727  001380  5027               	movf	(___flmul@temp+1)^0,w,c
  5728  001382  E106               	bnz	u3091
  5729  001384  0426               	decf	___flmul@temp^0,w,c
  5730  001386  B0D8               	btfsc	status,0,c
  5731  001388  EFC8  F009         	goto	u3091
  5732  00138C  EFCA  F009         	goto	u3090
  5733  001390                     u3091:
  5734  001390  EFD6  F009         	goto	l959
  5735  001394                     u3090:
  5736  001394  0E00               	movlw	0
  5737  001396  6E22               	movwf	___flmul@prod^0,c
  5738  001398  0E00               	movlw	0
  5739  00139A  6E23               	movwf	(___flmul@prod+1)^0,c
  5740  00139C  0E00               	movlw	0
  5741  00139E  6E24               	movwf	(___flmul@prod+2)^0,c
  5742  0013A0  0E00               	movlw	0
  5743  0013A2  6E25               	movwf	(___flmul@prod+3)^0,c
  5744  0013A4  0E00               	movlw	0
  5745  0013A6  6E1B               	movwf	___flmul@sign^0,c
  5746  0013A8  EFEB  F009         	goto	l2933
  5747  0013AC                     l959:
  5748  0013AC  C026  F021         	movff	___flmul@temp,___flmul@bexp
  5749  0013B0  0EFF               	movlw	255
  5750  0013B2  1622               	andwf	___flmul@prod^0,f,c
  5751  0013B4  0EFF               	movlw	255
  5752  0013B6  1623               	andwf	(___flmul@prod+1)^0,f,c
  5753  0013B8  0E7F               	movlw	127
  5754  0013BA  1624               	andwf	(___flmul@prod+2)^0,f,c
  5755  0013BC  0E00               	movlw	0
  5756  0013BE  1625               	andwf	(___flmul@prod+3)^0,f,c
  5757  0013C0  A021               	btfss	___flmul@bexp^0,0,c
  5758  0013C2  EFE5  F009         	goto	u3101
  5759  0013C6  EFE7  F009         	goto	u3100
  5760  0013CA                     u3101:
  5761  0013CA  EFE8  F009         	goto	l2931
  5762  0013CE                     u3100:
  5763  0013CE  8E24               	bsf	(___flmul@prod+2)^0,7,c
  5764  0013D0                     l2931:
  5765  0013D0  90D8               	bcf	status,0,c
  5766  0013D2  3021               	rrcf	___flmul@bexp^0,w,c
  5767  0013D4  6E25               	movwf	(___flmul@prod+3)^0,c
  5768  0013D6                     l2933:
  5769  0013D6  501B               	movf	___flmul@sign^0,w,c
  5770  0013D8  1225               	iorwf	(___flmul@prod+3)^0,f,c
  5771  0013DA  C022  F00F         	movff	___flmul@prod,?___flmul
  5772  0013DE  C023  F010         	movff	___flmul@prod+1,?___flmul+1
  5773  0013E2  C024  F011         	movff	___flmul@prod+2,?___flmul+2
  5774  0013E6  C025  F012         	movff	___flmul@prod+3,?___flmul+3
  5775  0013EA                     l946:
  5776  0013EA  0012               	return		;funcret
  5777  0013EC                     __end_of___flmul:
  5778                           	callstack 0
  5779                           
  5780 ;; *************** function ___flge *****************
  5781 ;; Defined at:
  5782 ;;		line 4 in file "C:\Program Files\Microchip\xc8\v2.32\pic\sources\c99\common\flge.c"
  5783 ;; Parameters:    Size  Location     Type
  5784 ;;  ff1             4    0[COMRAM] unsigned char 
  5785 ;;  ff2             4    4[COMRAM] unsigned char 
  5786 ;; Auto vars:     Size  Location     Type
  5787 ;;		None
  5788 ;; Return value:  Size  Location     Type
  5789 ;;		None               void
  5790 ;; Registers used:
  5791 ;;		wreg, status,2, status,0
  5792 ;; Tracked objects:
  5793 ;;		On entry : 0/0
  5794 ;;		On exit  : 0/0
  5795 ;;		Unchanged: 0/0
  5796 ;; Data sizes:     COMRAM   BANK0   BANK1   BANK2   BANK3   BANK4   BANK5
  5797 ;;      Params:         8       0       0       0       0       0       0
  5798 ;;      Locals:         0       0       0       0       0       0       0
  5799 ;;      Temps:          4       0       0       0       0       0       0
  5800 ;;      Totals:        12       0       0       0       0       0       0
  5801 ;;Total ram usage:       12 bytes
  5802 ;; Hardware stack levels used: 1
  5803 ;; This function calls:
  5804 ;;		Nothing
  5805 ;; This function is called by:
  5806 ;;		_main
  5807 ;;		_abastece
  5808 ;; This function uses a non-reentrant model
  5809 ;;
  5810                           
  5811                           	psect	text29
  5812  002266                     __ptext29:
  5813                           	callstack 0
  5814  002266                     ___flge:
  5815                           	callstack 29
  5816  002266  0E00               	movlw	0
  5817  002268  1401               	andwf	___flge@ff1^0,w,c
  5818  00226A  6E09               	movwf	??___flge^0,c
  5819  00226C  0E00               	movlw	0
  5820  00226E  1402               	andwf	(___flge@ff1+1)^0,w,c
  5821  002270  6E0A               	movwf	(??___flge+1)^0,c
  5822  002272  0E80               	movlw	128
  5823  002274  1403               	andwf	(___flge@ff1+2)^0,w,c
  5824  002276  6E0B               	movwf	(??___flge+2)^0,c
  5825  002278  0E7F               	movlw	127
  5826  00227A  1404               	andwf	(___flge@ff1+3)^0,w,c
  5827  00227C  6E0C               	movwf	(??___flge+3)^0,c
  5828  00227E  5009               	movf	??___flge^0,w,c
  5829  002280  100A               	iorwf	(??___flge+1)^0,w,c
  5830  002282  100B               	iorwf	(??___flge+2)^0,w,c
  5831  002284  100C               	iorwf	(??___flge+3)^0,w,c
  5832  002286  A4D8               	btfss	status,2,c
  5833  002288  EF48  F011         	goto	u3111
  5834  00228C  EF4A  F011         	goto	u3110
  5835  002290                     u3111:
  5836  002290  EF52  F011         	goto	l2943
  5837  002294                     u3110:
  5838  002294  0E00               	movlw	0
  5839  002296  6E01               	movwf	___flge@ff1^0,c
  5840  002298  0E00               	movlw	0
  5841  00229A  6E02               	movwf	(___flge@ff1+1)^0,c
  5842  00229C  0E00               	movlw	0
  5843  00229E  6E03               	movwf	(___flge@ff1+2)^0,c
  5844  0022A0  0E00               	movlw	0
  5845  0022A2  6E04               	movwf	(___flge@ff1+3)^0,c
  5846  0022A4                     l2943:
  5847  0022A4  0E00               	movlw	0
  5848  0022A6  1405               	andwf	___flge@ff2^0,w,c
  5849  0022A8  6E09               	movwf	??___flge^0,c
  5850  0022AA  0E00               	movlw	0
  5851  0022AC  1406               	andwf	(___flge@ff2+1)^0,w,c
  5852  0022AE  6E0A               	movwf	(??___flge+1)^0,c
  5853  0022B0  0E80               	movlw	128
  5854  0022B2  1407               	andwf	(___flge@ff2+2)^0,w,c
  5855  0022B4  6E0B               	movwf	(??___flge+2)^0,c
  5856  0022B6  0E7F               	movlw	127
  5857  0022B8  1408               	andwf	(___flge@ff2+3)^0,w,c
  5858  0022BA  6E0C               	movwf	(??___flge+3)^0,c
  5859  0022BC  5009               	movf	??___flge^0,w,c
  5860  0022BE  100A               	iorwf	(??___flge+1)^0,w,c
  5861  0022C0  100B               	iorwf	(??___flge+2)^0,w,c
  5862  0022C2  100C               	iorwf	(??___flge+3)^0,w,c
  5863  0022C4  A4D8               	btfss	status,2,c
  5864  0022C6  EF67  F011         	goto	u3121
  5865  0022CA  EF69  F011         	goto	u3120
  5866  0022CE                     u3121:
  5867  0022CE  EF71  F011         	goto	l2947
  5868  0022D2                     u3120:
  5869  0022D2  0E00               	movlw	0
  5870  0022D4  6E05               	movwf	___flge@ff2^0,c
  5871  0022D6  0E00               	movlw	0
  5872  0022D8  6E06               	movwf	(___flge@ff2+1)^0,c
  5873  0022DA  0E00               	movlw	0
  5874  0022DC  6E07               	movwf	(___flge@ff2+2)^0,c
  5875  0022DE  0E00               	movlw	0
  5876  0022E0  6E08               	movwf	(___flge@ff2+3)^0,c
  5877  0022E2                     l2947:
  5878  0022E2  AE04               	btfss	(___flge@ff1+3)^0,7,c
  5879  0022E4  EF76  F011         	goto	u3131
  5880  0022E8  EF78  F011         	goto	u3130
  5881  0022EC                     u3131:
  5882  0022EC  EF81  F011         	goto	l2951
  5883  0022F0                     u3130:
  5884  0022F0  6C01               	negf	___flge@ff1^0,c
  5885  0022F2  1E02               	comf	(___flge@ff1+1)^0,f,c
  5886  0022F4  B0D8               	btfsc	status,0,c
  5887  0022F6  2A02               	incf	(___flge@ff1+1)^0,f,c
  5888  0022F8  1E03               	comf	(___flge@ff1+2)^0,f,c
  5889  0022FA  B0D8               	btfsc	status,0,c
  5890  0022FC  2A03               	incf	(___flge@ff1+2)^0,f,c
  5891  0022FE  0E80               	movlw	128
  5892  002300  5604               	subfwb	(___flge@ff1+3)^0,f,c
  5893  002302                     l2951:
  5894  002302  AE08               	btfss	(___flge@ff2+3)^0,7,c
  5895  002304  EF86  F011         	goto	u3141
  5896  002308  EF88  F011         	goto	u3140
  5897  00230C                     u3141:
  5898  00230C  EF91  F011         	goto	l593
  5899  002310                     u3140:
  5900  002310  6C05               	negf	___flge@ff2^0,c
  5901  002312  1E06               	comf	(___flge@ff2+1)^0,f,c
  5902  002314  B0D8               	btfsc	status,0,c
  5903  002316  2A06               	incf	(___flge@ff2+1)^0,f,c
  5904  002318  1E07               	comf	(___flge@ff2+2)^0,f,c
  5905  00231A  B0D8               	btfsc	status,0,c
  5906  00231C  2A07               	incf	(___flge@ff2+2)^0,f,c
  5907  00231E  0E80               	movlw	128
  5908  002320  5608               	subfwb	(___flge@ff2+3)^0,f,c
  5909  002322                     l593:
  5910  002322  0E00               	movlw	0
  5911  002324  1A01               	xorwf	___flge@ff1^0,f,c
  5912  002326  0E00               	movlw	0
  5913  002328  1A02               	xorwf	(___flge@ff1+1)^0,f,c
  5914  00232A  0E00               	movlw	0
  5915  00232C  1A03               	xorwf	(___flge@ff1+2)^0,f,c
  5916  00232E  0E80               	movlw	128
  5917  002330  1A04               	xorwf	(___flge@ff1+3)^0,f,c
  5918  002332  0E00               	movlw	0
  5919  002334  1A05               	xorwf	___flge@ff2^0,f,c
  5920  002336  0E00               	movlw	0
  5921  002338  1A06               	xorwf	(___flge@ff2+1)^0,f,c
  5922  00233A  0E00               	movlw	0
  5923  00233C  1A07               	xorwf	(___flge@ff2+2)^0,f,c
  5924  00233E  0E80               	movlw	128
  5925  002340  1A08               	xorwf	(___flge@ff2+3)^0,f,c
  5926  002342  5005               	movf	___flge@ff2^0,w,c
  5927  002344  5C01               	subwf	___flge@ff1^0,w,c
  5928  002346  5006               	movf	(___flge@ff2+1)^0,w,c
  5929  002348  5802               	subwfb	(___flge@ff1+1)^0,w,c
  5930  00234A  5007               	movf	(___flge@ff2+2)^0,w,c
  5931  00234C  5803               	subwfb	(___flge@ff1+2)^0,w,c
  5932  00234E  5008               	movf	(___flge@ff2+3)^0,w,c
  5933  002350  5804               	subwfb	(___flge@ff1+3)^0,w,c
  5934  002352  B0D8               	btfsc	status,0,c
  5935  002354  EFAE  F011         	goto	u3151
  5936  002358  EFB0  F011         	goto	u3150
  5937  00235C                     u3151:
  5938  00235C  EFB3  F011         	goto	l2957
  5939  002360                     u3150:
  5940  002360  90D8               	bcf	status,0,c
  5941  002362  EFB4  F011         	goto	l598
  5942  002366                     l2957:
  5943  002366  80D8               	bsf	status,0,c
  5944  002368                     l598:
  5945  002368  0012               	return		;funcret
  5946  00236A                     __end_of___flge:
  5947                           	callstack 0
  5948                           
  5949 ;; *************** function ___fladd *****************
  5950 ;; Defined at:
  5951 ;;		line 10 in file "C:\Program Files\Microchip\xc8\v2.32\pic\sources\c99\common\sprcadd.c"
  5952 ;; Parameters:    Size  Location     Type
  5953 ;;  b               4    0[COMRAM] unsigned char 
  5954 ;;  a               4    4[COMRAM] unsigned char 
  5955 ;; Auto vars:     Size  Location     Type
  5956 ;;  grs             1   15[COMRAM] unsigned char 
  5957 ;;  bexp            1   14[COMRAM] unsigned char 
  5958 ;;  aexp            1   13[COMRAM] unsigned char 
  5959 ;;  signs           1   12[COMRAM] unsigned char 
  5960 ;; Return value:  Size  Location     Type
  5961 ;;                  4    0[COMRAM] unsigned char 
  5962 ;; Registers used:
  5963 ;;		wreg, status,2, status,0
  5964 ;; Tracked objects:
  5965 ;;		On entry : 0/0
  5966 ;;		On exit  : 0/0
  5967 ;;		Unchanged: 0/0
  5968 ;; Data sizes:     COMRAM   BANK0   BANK1   BANK2   BANK3   BANK4   BANK5
  5969 ;;      Params:         8       0       0       0       0       0       0
  5970 ;;      Locals:         4       0       0       0       0       0       0
  5971 ;;      Temps:          4       0       0       0       0       0       0
  5972 ;;      Totals:        16       0       0       0       0       0       0
  5973 ;;Total ram usage:       16 bytes
  5974 ;; Hardware stack levels used: 1
  5975 ;; This function calls:
  5976 ;;		Nothing
  5977 ;; This function is called by:
  5978 ;;		_main
  5979 ;;		_abastece
  5980 ;; This function uses a non-reentrant model
  5981 ;;
  5982                           
  5983                           	psect	text30
  5984  000684                     __ptext30:
  5985                           	callstack 0
  5986  000684                     ___fladd:
  5987                           	callstack 29
  5988  000684  5004               	movf	(___fladd@b+3)^0,w,c
  5989  000686  0B80               	andlw	128
  5990  000688  6E0D               	movwf	___fladd@signs^0,c
  5991  00068A  5004               	movf	(___fladd@b+3)^0,w,c
  5992  00068C  2404               	addwf	(___fladd@b+3)^0,w,c
  5993  00068E  6E0F               	movwf	___fladd@bexp^0,c
  5994  000690  AE03               	btfss	(___fladd@b+2)^0,7,c
  5995  000692  EF4D  F003         	goto	u2531
  5996  000696  EF4F  F003         	goto	u2530
  5997  00069A                     u2531:
  5998  00069A  EF50  F003         	goto	l2613
  5999  00069E                     u2530:
  6000  00069E  800F               	bsf	___fladd@bexp^0,0,c
  6001  0006A0                     l2613:
  6002  0006A0  500F               	movf	___fladd@bexp^0,w,c
  6003  0006A2  B4D8               	btfsc	status,2,c
  6004  0006A4  EF56  F003         	goto	u2541
  6005  0006A8  EF58  F003         	goto	u2540
  6006  0006AC                     u2541:
  6007  0006AC  EF6D  F003         	goto	l2623
  6008  0006B0                     u2540:
  6009  0006B0  280F               	incf	___fladd@bexp^0,w,c
  6010  0006B2  A4D8               	btfss	status,2,c
  6011  0006B4  EF5E  F003         	goto	u2551
  6012  0006B8  EF60  F003         	goto	u2550
  6013  0006BC                     u2551:
  6014  0006BC  EF68  F003         	goto	l2619
  6015  0006C0                     u2550:
  6016  0006C0  0E00               	movlw	0
  6017  0006C2  6E01               	movwf	___fladd@b^0,c
  6018  0006C4  0E00               	movlw	0
  6019  0006C6  6E02               	movwf	(___fladd@b+1)^0,c
  6020  0006C8  0E00               	movlw	0
  6021  0006CA  6E03               	movwf	(___fladd@b+2)^0,c
  6022  0006CC  0E00               	movlw	0
  6023  0006CE  6E04               	movwf	(___fladd@b+3)^0,c
  6024  0006D0                     l2619:
  6025  0006D0  8E03               	bsf	(___fladd@b+2)^0,7,c
  6026  0006D2  0E00               	movlw	0
  6027  0006D4  6E04               	movwf	(___fladd@b+3)^0,c
  6028  0006D6  EF75  F003         	goto	l2625
  6029  0006DA                     l2623:
  6030  0006DA  0E00               	movlw	0
  6031  0006DC  6E01               	movwf	___fladd@b^0,c
  6032  0006DE  0E00               	movlw	0
  6033  0006E0  6E02               	movwf	(___fladd@b+1)^0,c
  6034  0006E2  0E00               	movlw	0
  6035  0006E4  6E03               	movwf	(___fladd@b+2)^0,c
  6036  0006E6  0E00               	movlw	0
  6037  0006E8  6E04               	movwf	(___fladd@b+3)^0,c
  6038  0006EA                     l2625:
  6039  0006EA  5008               	movf	(___fladd@a+3)^0,w,c
  6040  0006EC  0B80               	andlw	128
  6041  0006EE  6E0E               	movwf	___fladd@aexp^0,c
  6042  0006F0  500D               	movf	___fladd@signs^0,w,c
  6043  0006F2  180E               	xorwf	___fladd@aexp^0,w,c
  6044  0006F4  B4D8               	btfsc	status,2,c
  6045  0006F6  EF7F  F003         	goto	u2561
  6046  0006FA  EF81  F003         	goto	u2560
  6047  0006FE                     u2561:
  6048  0006FE  EF82  F003         	goto	l2631
  6049  000702                     u2560:
  6050  000702  8C0D               	bsf	___fladd@signs^0,6,c
  6051  000704                     l2631:
  6052  000704  5008               	movf	(___fladd@a+3)^0,w,c
  6053  000706  2408               	addwf	(___fladd@a+3)^0,w,c
  6054  000708  6E0E               	movwf	___fladd@aexp^0,c
  6055  00070A  AE07               	btfss	(___fladd@a+2)^0,7,c
  6056  00070C  EF8A  F003         	goto	u2571
  6057  000710  EF8C  F003         	goto	u2570
  6058  000714                     u2571:
  6059  000714  EF8D  F003         	goto	l2637
  6060  000718                     u2570:
  6061  000718  800E               	bsf	___fladd@aexp^0,0,c
  6062  00071A                     l2637:
  6063  00071A  500E               	movf	___fladd@aexp^0,w,c
  6064  00071C  B4D8               	btfsc	status,2,c
  6065  00071E  EF93  F003         	goto	u2581
  6066  000722  EF95  F003         	goto	u2580
  6067  000726                     u2581:
  6068  000726  EFAA  F003         	goto	l2647
  6069  00072A                     u2580:
  6070  00072A  280E               	incf	___fladd@aexp^0,w,c
  6071  00072C  A4D8               	btfss	status,2,c
  6072  00072E  EF9B  F003         	goto	u2591
  6073  000732  EF9D  F003         	goto	u2590
  6074  000736                     u2591:
  6075  000736  EFA5  F003         	goto	l2643
  6076  00073A                     u2590:
  6077  00073A  0E00               	movlw	0
  6078  00073C  6E05               	movwf	___fladd@a^0,c
  6079  00073E  0E00               	movlw	0
  6080  000740  6E06               	movwf	(___fladd@a+1)^0,c
  6081  000742  0E00               	movlw	0
  6082  000744  6E07               	movwf	(___fladd@a+2)^0,c
  6083  000746  0E00               	movlw	0
  6084  000748  6E08               	movwf	(___fladd@a+3)^0,c
  6085  00074A                     l2643:
  6086  00074A  8E07               	bsf	(___fladd@a+2)^0,7,c
  6087  00074C  0E00               	movlw	0
  6088  00074E  6E08               	movwf	(___fladd@a+3)^0,c
  6089  000750  EFB2  F003         	goto	l2649
  6090  000754                     l2647:
  6091  000754  0E00               	movlw	0
  6092  000756  6E05               	movwf	___fladd@a^0,c
  6093  000758  0E00               	movlw	0
  6094  00075A  6E06               	movwf	(___fladd@a+1)^0,c
  6095  00075C  0E00               	movlw	0
  6096  00075E  6E07               	movwf	(___fladd@a+2)^0,c
  6097  000760  0E00               	movlw	0
  6098  000762  6E08               	movwf	(___fladd@a+3)^0,c
  6099  000764                     l2649:
  6100  000764  500F               	movf	___fladd@bexp^0,w,c
  6101  000766  5C0E               	subwf	___fladd@aexp^0,w,c
  6102  000768  B0D8               	btfsc	status,0,c
  6103  00076A  EFB9  F003         	goto	u2601
  6104  00076E  EFBB  F003         	goto	u2600
  6105  000772                     u2601:
  6106  000772  EFE2  F003         	goto	l2685
  6107  000776                     u2600:
  6108  000776  AC0D               	btfss	___fladd@signs^0,6,c
  6109  000778  EFC0  F003         	goto	u2611
  6110  00077C  EFC2  F003         	goto	u2610
  6111  000780                     u2611:
  6112  000780  EFC4  F003         	goto	l2655
  6113  000784                     u2610:
  6114  000784  0E80               	movlw	128
  6115  000786  1A0D               	xorwf	___fladd@signs^0,f,c
  6116  000788                     l2655:
  6117  000788  C00F  F010         	movff	___fladd@bexp,___fladd@grs
  6118  00078C  C00E  F00F         	movff	___fladd@aexp,___fladd@bexp
  6119  000790  C010  F00E         	movff	___fladd@grs,___fladd@aexp
  6120  000794  C001  F010         	movff	___fladd@b,___fladd@grs
  6121  000798  C005  F001         	movff	___fladd@a,___fladd@b
  6122  00079C  C010  F005         	movff	___fladd@grs,___fladd@a
  6123  0007A0  C002  F010         	movff	___fladd@b+1,___fladd@grs
  6124  0007A4  C006  F002         	movff	___fladd@a+1,___fladd@b+1
  6125  0007A8  C010  F006         	movff	___fladd@grs,___fladd@a+1
  6126  0007AC  C003  F010         	movff	___fladd@b+2,___fladd@grs
  6127  0007B0  C007  F003         	movff	___fladd@a+2,___fladd@b+2
  6128  0007B4  C010  F007         	movff	___fladd@grs,___fladd@a+2
  6129  0007B8  C004  F010         	movff	___fladd@b+3,___fladd@grs
  6130  0007BC  C008  F004         	movff	___fladd@a+3,___fladd@b+3
  6131  0007C0  C010  F008         	movff	___fladd@grs,___fladd@a+3
  6132  0007C4                     l2685:
  6133  0007C4  0E00               	movlw	0
  6134  0007C6  6E10               	movwf	___fladd@grs^0,c
  6135  0007C8  500F               	movf	___fladd@bexp^0,w,c
  6136  0007CA  C00E  F009         	movff	___fladd@aexp,??___fladd
  6137  0007CE  6A0A               	clrf	(??___fladd+1)^0,c
  6138  0007D0  5E09               	subwf	??___fladd^0,f,c
  6139  0007D2  0E00               	movlw	0
  6140  0007D4  5A0A               	subwfb	(??___fladd+1)^0,f,c
  6141  0007D6  BE0A               	btfsc	(??___fladd+1)^0,7,c
  6142  0007D8  EFF7  F003         	goto	u2621
  6143  0007DC  500A               	movf	(??___fladd+1)^0,w,c
  6144  0007DE  E109               	bnz	u2620
  6145  0007E0  0E1A               	movlw	26
  6146  0007E2  5C09               	subwf	??___fladd^0,w,c
  6147  0007E4  A0D8               	btfss	status,0,c
  6148  0007E6  EFF7  F003         	goto	u2621
  6149  0007EA  EFF9  F003         	goto	u2620
  6150  0007EE                     u2621:
  6151  0007EE  EF30  F004         	goto	l857
  6152  0007F2                     u2620:
  6153  0007F2  5001               	movf	___fladd@b^0,w,c
  6154  0007F4  1002               	iorwf	(___fladd@b+1)^0,w,c
  6155  0007F6  1003               	iorwf	(___fladd@b+2)^0,w,c
  6156  0007F8  1004               	iorwf	(___fladd@b+3)^0,w,c
  6157  0007FA  A4D8               	btfss	status,2,c
  6158  0007FC  EF02  F004         	goto	u2631
  6159  000800  EF05  F004         	goto	u2630
  6160  000804                     u2631:
  6161  000804  0E01               	movlw	1
  6162  000806  EF06  F004         	goto	u2640
  6163  00080A                     u2630:
  6164  00080A  0E00               	movlw	0
  6165  00080C                     u2640:
  6166  00080C  6E10               	movwf	___fladd@grs^0,c
  6167  00080E  0E00               	movlw	0
  6168  000810  6E01               	movwf	___fladd@b^0,c
  6169  000812  0E00               	movlw	0
  6170  000814  6E02               	movwf	(___fladd@b+1)^0,c
  6171  000816  0E00               	movlw	0
  6172  000818  6E03               	movwf	(___fladd@b+2)^0,c
  6173  00081A  0E00               	movlw	0
  6174  00081C  6E04               	movwf	(___fladd@b+3)^0,c
  6175  00081E  C00E  F00F         	movff	___fladd@aexp,___fladd@bexp
  6176  000822  EF39  F004         	goto	l856
  6177  000826                     l858:
  6178  000826  A010               	btfss	___fladd@grs^0,0,c
  6179  000828  EF18  F004         	goto	u2651
  6180  00082C  EF1A  F004         	goto	u2650
  6181  000830                     u2651:
  6182  000830  EF20  F004         	goto	l2697
  6183  000834                     u2650:
  6184  000834  90D8               	bcf	status,0,c
  6185  000836  3010               	rrcf	___fladd@grs^0,w,c
  6186  000838  0901               	iorlw	1
  6187  00083A  6E10               	movwf	___fladd@grs^0,c
  6188  00083C  EF22  F004         	goto	l2699
  6189  000840                     l2697:
  6190  000840  90D8               	bcf	status,0,c
  6191  000842  3210               	rrcf	___fladd@grs^0,f,c
  6192  000844                     l2699:
  6193  000844  A001               	btfss	___fladd@b^0,0,c
  6194  000846  EF27  F004         	goto	u2661
  6195  00084A  EF29  F004         	goto	u2660
  6196  00084E                     u2661:
  6197  00084E  EF2A  F004         	goto	l2703
  6198  000852                     u2660:
  6199  000852  8E10               	bsf	___fladd@grs^0,7,c
  6200  000854                     l2703:
  6201  000854  3404               	rlcf	(___fladd@b+3)^0,w,c
  6202  000856  3204               	rrcf	(___fladd@b+3)^0,f,c
  6203  000858  3203               	rrcf	(___fladd@b+2)^0,f,c
  6204  00085A  3202               	rrcf	(___fladd@b+1)^0,f,c
  6205  00085C  3201               	rrcf	___fladd@b^0,f,c
  6206  00085E  2A0F               	incf	___fladd@bexp^0,f,c
  6207  000860                     l857:
  6208  000860  500E               	movf	___fladd@aexp^0,w,c
  6209  000862  5C0F               	subwf	___fladd@bexp^0,w,c
  6210  000864  A0D8               	btfss	status,0,c
  6211  000866  EF37  F004         	goto	u2671
  6212  00086A  EF39  F004         	goto	u2670
  6213  00086E                     u2671:
  6214  00086E  EF13  F004         	goto	l858
  6215  000872                     u2670:
  6216  000872                     l856:
  6217  000872  BC0D               	btfsc	___fladd@signs^0,6,c
  6218  000874  EF3E  F004         	goto	u2681
  6219  000878  EF40  F004         	goto	u2680
  6220  00087C                     u2681:
  6221  00087C  EF80  F004         	goto	l2731
  6222  000880                     u2680:
  6223  000880  500F               	movf	___fladd@bexp^0,w,c
  6224  000882  A4D8               	btfss	status,2,c
  6225  000884  EF46  F004         	goto	u2691
  6226  000888  EF48  F004         	goto	u2690
  6227  00088C                     u2691:
  6228  00088C  EF52  F004         	goto	l2713
  6229  000890                     u2690:
  6230  000890  0E00               	movlw	0
  6231  000892  6E01               	movwf	?___fladd^0,c
  6232  000894  0E00               	movlw	0
  6233  000896  6E02               	movwf	(?___fladd+1)^0,c
  6234  000898  0E00               	movlw	0
  6235  00089A  6E03               	movwf	(?___fladd+2)^0,c
  6236  00089C  0E00               	movlw	0
  6237  00089E  6E04               	movwf	(?___fladd+3)^0,c
  6238  0008A0  EFA1  F005         	goto	l865
  6239  0008A4                     l2713:
  6240  0008A4  5005               	movf	___fladd@a^0,w,c
  6241  0008A6  2601               	addwf	___fladd@b^0,f,c
  6242  0008A8  5006               	movf	(___fladd@a+1)^0,w,c
  6243  0008AA  2202               	addwfc	(___fladd@b+1)^0,f,c
  6244  0008AC  5007               	movf	(___fladd@a+2)^0,w,c
  6245  0008AE  2203               	addwfc	(___fladd@b+2)^0,f,c
  6246  0008B0  5008               	movf	(___fladd@a+3)^0,w,c
  6247  0008B2  2204               	addwfc	(___fladd@b+3)^0,f,c
  6248  0008B4  A004               	btfss	(___fladd@b+3)^0,0,c
  6249  0008B6  EF5F  F004         	goto	u2701
  6250  0008BA  EF61  F004         	goto	u2700
  6251  0008BE                     u2701:
  6252  0008BE  EF0D  F005         	goto	l2767
  6253  0008C2                     u2700:
  6254  0008C2  A010               	btfss	___fladd@grs^0,0,c
  6255  0008C4  EF66  F004         	goto	u2711
  6256  0008C8  EF68  F004         	goto	u2710
  6257  0008CC                     u2711:
  6258  0008CC  EF6E  F004         	goto	l2721
  6259  0008D0                     u2710:
  6260  0008D0  90D8               	bcf	status,0,c
  6261  0008D2  3010               	rrcf	___fladd@grs^0,w,c
  6262  0008D4  0901               	iorlw	1
  6263  0008D6  6E10               	movwf	___fladd@grs^0,c
  6264  0008D8  EF70  F004         	goto	l2723
  6265  0008DC                     l2721:
  6266  0008DC  90D8               	bcf	status,0,c
  6267  0008DE  3210               	rrcf	___fladd@grs^0,f,c
  6268  0008E0                     l2723:
  6269  0008E0  A001               	btfss	___fladd@b^0,0,c
  6270  0008E2  EF75  F004         	goto	u2721
  6271  0008E6  EF77  F004         	goto	u2720
  6272  0008EA                     u2721:
  6273  0008EA  EF78  F004         	goto	l2727
  6274  0008EE                     u2720:
  6275  0008EE  8E10               	bsf	___fladd@grs^0,7,c
  6276  0008F0                     l2727:
  6277  0008F0  3404               	rlcf	(___fladd@b+3)^0,w,c
  6278  0008F2  3204               	rrcf	(___fladd@b+3)^0,f,c
  6279  0008F4  3203               	rrcf	(___fladd@b+2)^0,f,c
  6280  0008F6  3202               	rrcf	(___fladd@b+1)^0,f,c
  6281  0008F8  3201               	rrcf	___fladd@b^0,f,c
  6282  0008FA  2A0F               	incf	___fladd@bexp^0,f,c
  6283  0008FC  EF0D  F005         	goto	l2767
  6284  000900                     l2731:
  6285  000900  5005               	movf	___fladd@a^0,w,c
  6286  000902  5C01               	subwf	___fladd@b^0,w,c
  6287  000904  5006               	movf	(___fladd@a+1)^0,w,c
  6288  000906  5802               	subwfb	(___fladd@b+1)^0,w,c
  6289  000908  5007               	movf	(___fladd@a+2)^0,w,c
  6290  00090A  5803               	subwfb	(___fladd@b+2)^0,w,c
  6291  00090C  5004               	movf	(___fladd@b+3)^0,w,c
  6292  00090E  0A80               	xorlw	128
  6293  000910  6E09               	movwf	??___fladd^0,c
  6294  000912  5008               	movf	(___fladd@a+3)^0,w,c
  6295  000914  0A80               	xorlw	128
  6296  000916  5809               	subwfb	??___fladd^0,w,c
  6297  000918  B0D8               	btfsc	status,0,c
  6298  00091A  EF91  F004         	goto	u2731
  6299  00091E  EF93  F004         	goto	u2730
  6300  000922                     u2731:
  6301  000922  EFBE  F004         	goto	l2741
  6302  000926                     u2730:
  6303  000926  5001               	movf	___fladd@b^0,w,c
  6304  000928  5C05               	subwf	___fladd@a^0,w,c
  6305  00092A  6E09               	movwf	??___fladd^0,c
  6306  00092C  5002               	movf	(___fladd@b+1)^0,w,c
  6307  00092E  5806               	subwfb	(___fladd@a+1)^0,w,c
  6308  000930  6E0A               	movwf	(??___fladd+1)^0,c
  6309  000932  5003               	movf	(___fladd@b+2)^0,w,c
  6310  000934  5807               	subwfb	(___fladd@a+2)^0,w,c
  6311  000936  6E0B               	movwf	(??___fladd+2)^0,c
  6312  000938  5004               	movf	(___fladd@b+3)^0,w,c
  6313  00093A  5808               	subwfb	(___fladd@a+3)^0,w,c
  6314  00093C  6E0C               	movwf	(??___fladd+3)^0,c
  6315  00093E  0EFF               	movlw	255
  6316  000940  2409               	addwf	??___fladd^0,w,c
  6317  000942  6E01               	movwf	___fladd@b^0,c
  6318  000944  0EFF               	movlw	255
  6319  000946  200A               	addwfc	(??___fladd+1)^0,w,c
  6320  000948  6E02               	movwf	(___fladd@b+1)^0,c
  6321  00094A  0EFF               	movlw	255
  6322  00094C  200B               	addwfc	(??___fladd+2)^0,w,c
  6323  00094E  6E03               	movwf	(___fladd@b+2)^0,c
  6324  000950  0EFF               	movlw	255
  6325  000952  200C               	addwfc	(??___fladd+3)^0,w,c
  6326  000954  6E04               	movwf	(___fladd@b+3)^0,c
  6327  000956  0E80               	movlw	128
  6328  000958  1A0D               	xorwf	___fladd@signs^0,f,c
  6329  00095A  6C10               	negf	___fladd@grs^0,c
  6330  00095C  5010               	movf	___fladd@grs^0,w,c
  6331  00095E  A4D8               	btfss	status,2,c
  6332  000960  EFB4  F004         	goto	u2741
  6333  000964  EFB6  F004         	goto	u2740
  6334  000968                     u2741:
  6335  000968  EFC6  F004         	goto	l873
  6336  00096C                     u2740:
  6337  00096C  0E01               	movlw	1
  6338  00096E  2601               	addwf	___fladd@b^0,f,c
  6339  000970  0E00               	movlw	0
  6340  000972  2202               	addwfc	(___fladd@b+1)^0,f,c
  6341  000974  2203               	addwfc	(___fladd@b+2)^0,f,c
  6342  000976  2204               	addwfc	(___fladd@b+3)^0,f,c
  6343  000978  EFC6  F004         	goto	l873
  6344  00097C                     l2741:
  6345  00097C  5005               	movf	___fladd@a^0,w,c
  6346  00097E  5E01               	subwf	___fladd@b^0,f,c
  6347  000980  5006               	movf	(___fladd@a+1)^0,w,c
  6348  000982  5A02               	subwfb	(___fladd@b+1)^0,f,c
  6349  000984  5007               	movf	(___fladd@a+2)^0,w,c
  6350  000986  5A03               	subwfb	(___fladd@b+2)^0,f,c
  6351  000988  5008               	movf	(___fladd@a+3)^0,w,c
  6352  00098A  5A04               	subwfb	(___fladd@b+3)^0,f,c
  6353  00098C                     l873:
  6354  00098C  5001               	movf	___fladd@b^0,w,c
  6355  00098E  1002               	iorwf	(___fladd@b+1)^0,w,c
  6356  000990  1003               	iorwf	(___fladd@b+2)^0,w,c
  6357  000992  1004               	iorwf	(___fladd@b+3)^0,w,c
  6358  000994  A4D8               	btfss	status,2,c
  6359  000996  EFCF  F004         	goto	u2751
  6360  00099A  EFD1  F004         	goto	u2750
  6361  00099E                     u2751:
  6362  00099E  EF06  F005         	goto	l2765
  6363  0009A2                     u2750:
  6364  0009A2  5010               	movf	___fladd@grs^0,w,c
  6365  0009A4  A4D8               	btfss	status,2,c
  6366  0009A6  EFD7  F004         	goto	u2761
  6367  0009AA  EFD9  F004         	goto	u2760
  6368  0009AE                     u2761:
  6369  0009AE  EF06  F005         	goto	l2765
  6370  0009B2                     u2760:
  6371  0009B2  0E00               	movlw	0
  6372  0009B4  6E01               	movwf	?___fladd^0,c
  6373  0009B6  0E00               	movlw	0
  6374  0009B8  6E02               	movwf	(?___fladd+1)^0,c
  6375  0009BA  0E00               	movlw	0
  6376  0009BC  6E03               	movwf	(?___fladd+2)^0,c
  6377  0009BE  0E00               	movlw	0
  6378  0009C0  6E04               	movwf	(?___fladd+3)^0,c
  6379  0009C2  EFA1  F005         	goto	l865
  6380  0009C6                     l2749:
  6381  0009C6  90D8               	bcf	status,0,c
  6382  0009C8  3601               	rlcf	___fladd@b^0,f,c
  6383  0009CA  3602               	rlcf	(___fladd@b+1)^0,f,c
  6384  0009CC  3603               	rlcf	(___fladd@b+2)^0,f,c
  6385  0009CE  3604               	rlcf	(___fladd@b+3)^0,f,c
  6386  0009D0  AE10               	btfss	___fladd@grs^0,7,c
  6387  0009D2  EFED  F004         	goto	u2771
  6388  0009D6  EFEF  F004         	goto	u2770
  6389  0009DA                     u2771:
  6390  0009DA  EFF0  F004         	goto	l2755
  6391  0009DE                     u2770:
  6392  0009DE  8001               	bsf	___fladd@b^0,0,c
  6393  0009E0                     l2755:
  6394  0009E0  A010               	btfss	___fladd@grs^0,0,c
  6395  0009E2  EFF5  F004         	goto	u2781
  6396  0009E6  EFF7  F004         	goto	u2780
  6397  0009EA                     u2781:
  6398  0009EA  EFFB  F004         	goto	l2759
  6399  0009EE                     u2780:
  6400  0009EE  80D8               	bsf	status,0,c
  6401  0009F0  3610               	rlcf	___fladd@grs^0,f,c
  6402  0009F2  EFFD  F004         	goto	l2761
  6403  0009F6                     l2759:
  6404  0009F6  90D8               	bcf	status,0,c
  6405  0009F8  3610               	rlcf	___fladd@grs^0,f,c
  6406  0009FA                     l2761:
  6407  0009FA  500F               	movf	___fladd@bexp^0,w,c
  6408  0009FC  B4D8               	btfsc	status,2,c
  6409  0009FE  EF03  F005         	goto	u2791
  6410  000A02  EF05  F005         	goto	u2790
  6411  000A06                     u2791:
  6412  000A06  EF06  F005         	goto	l2765
  6413  000A0A                     u2790:
  6414  000A0A  060F               	decf	___fladd@bexp^0,f,c
  6415  000A0C                     l2765:
  6416  000A0C  AE03               	btfss	(___fladd@b+2)^0,7,c
  6417  000A0E  EF0B  F005         	goto	u2801
  6418  000A12  EF0D  F005         	goto	u2800
  6419  000A16                     u2801:
  6420  000A16  EFE3  F004         	goto	l2749
  6421  000A1A                     u2800:
  6422  000A1A                     l2767:
  6423  000A1A  0E00               	movlw	0
  6424  000A1C  6E0E               	movwf	___fladd@aexp^0,c
  6425  000A1E  AE10               	btfss	___fladd@grs^0,7,c
  6426  000A20  EF14  F005         	goto	u2811
  6427  000A24  EF16  F005         	goto	u2810
  6428  000A28                     u2811:
  6429  000A28  EF2E  F005         	goto	l882
  6430  000A2C                     u2810:
  6431  000A2C  C010  F009         	movff	___fladd@grs,??___fladd
  6432  000A30  0E7F               	movlw	127
  6433  000A32  1609               	andwf	??___fladd^0,f,c
  6434  000A34  B4D8               	btfsc	status,2,c
  6435  000A36  EF1F  F005         	goto	u2821
  6436  000A3A  EF21  F005         	goto	u2820
  6437  000A3E                     u2821:
  6438  000A3E  EF25  F005         	goto	l883
  6439  000A42                     u2820:
  6440  000A42                     l2773:
  6441  000A42  0E01               	movlw	1
  6442  000A44  6E0E               	movwf	___fladd@aexp^0,c
  6443  000A46  EF2E  F005         	goto	l882
  6444  000A4A                     l883:
  6445  000A4A  A001               	btfss	___fladd@b^0,0,c
  6446  000A4C  EF2A  F005         	goto	u2831
  6447  000A50  EF2C  F005         	goto	u2830
  6448  000A54                     u2831:
  6449  000A54  EF2E  F005         	goto	l882
  6450  000A58                     u2830:
  6451  000A58  EF21  F005         	goto	l2773
  6452  000A5C                     l882:
  6453  000A5C  500E               	movf	___fladd@aexp^0,w,c
  6454  000A5E  B4D8               	btfsc	status,2,c
  6455  000A60  EF34  F005         	goto	u2841
  6456  000A64  EF36  F005         	goto	u2840
  6457  000A68                     u2841:
  6458  000A68  EF61  F005         	goto	l2785
  6459  000A6C                     u2840:
  6460  000A6C  0E01               	movlw	1
  6461  000A6E  2601               	addwf	___fladd@b^0,f,c
  6462  000A70  0E00               	movlw	0
  6463  000A72  2202               	addwfc	(___fladd@b+1)^0,f,c
  6464  000A74  2203               	addwfc	(___fladd@b+2)^0,f,c
  6465  000A76  2204               	addwfc	(___fladd@b+3)^0,f,c
  6466  000A78  A004               	btfss	(___fladd@b+3)^0,0,c
  6467  000A7A  EF41  F005         	goto	u2851
  6468  000A7E  EF43  F005         	goto	u2850
  6469  000A82                     u2851:
  6470  000A82  EF61  F005         	goto	l2785
  6471  000A86                     u2850:
  6472  000A86  C001  F009         	movff	___fladd@b,??___fladd
  6473  000A8A  C002  F00A         	movff	___fladd@b+1,??___fladd+1
  6474  000A8E  C003  F00B         	movff	___fladd@b+2,??___fladd+2
  6475  000A92  C004  F00C         	movff	___fladd@b+3,??___fladd+3
  6476  000A96  340C               	rlcf	(??___fladd+3)^0,w,c
  6477  000A98  320C               	rrcf	(??___fladd+3)^0,f,c
  6478  000A9A  320B               	rrcf	(??___fladd+2)^0,f,c
  6479  000A9C  320A               	rrcf	(??___fladd+1)^0,f,c
  6480  000A9E  3209               	rrcf	??___fladd^0,f,c
  6481  000AA0  C009  F001         	movff	??___fladd,___fladd@b
  6482  000AA4  C00A  F002         	movff	??___fladd+1,___fladd@b+1
  6483  000AA8  C00B  F003         	movff	??___fladd+2,___fladd@b+2
  6484  000AAC  C00C  F004         	movff	??___fladd+3,___fladd@b+3
  6485  000AB0  280F               	incf	___fladd@bexp^0,w,c
  6486  000AB2  B4D8               	btfsc	status,2,c
  6487  000AB4  EF5E  F005         	goto	u2861
  6488  000AB8  EF60  F005         	goto	u2860
  6489  000ABC                     u2861:
  6490  000ABC  EF61  F005         	goto	l2785
  6491  000AC0                     u2860:
  6492  000AC0  2A0F               	incf	___fladd@bexp^0,f,c
  6493  000AC2                     l2785:
  6494  000AC2  280F               	incf	___fladd@bexp^0,w,c
  6495  000AC4  B4D8               	btfsc	status,2,c
  6496  000AC6  EF67  F005         	goto	u2871
  6497  000ACA  EF69  F005         	goto	u2870
  6498  000ACE                     u2871:
  6499  000ACE  EF71  F005         	goto	l2789
  6500  000AD2                     u2870:
  6501  000AD2  500F               	movf	___fladd@bexp^0,w,c
  6502  000AD4  A4D8               	btfss	status,2,c
  6503  000AD6  EF6F  F005         	goto	u2881
  6504  000ADA  EF71  F005         	goto	u2880
  6505  000ADE                     u2881:
  6506  000ADE  EF83  F005         	goto	l2793
  6507  000AE2                     u2880:
  6508  000AE2                     l2789:
  6509  000AE2  0E00               	movlw	0
  6510  000AE4  6E01               	movwf	___fladd@b^0,c
  6511  000AE6  0E00               	movlw	0
  6512  000AE8  6E02               	movwf	(___fladd@b+1)^0,c
  6513  000AEA  0E00               	movlw	0
  6514  000AEC  6E03               	movwf	(___fladd@b+2)^0,c
  6515  000AEE  0E00               	movlw	0
  6516  000AF0  6E04               	movwf	(___fladd@b+3)^0,c
  6517  000AF2  500F               	movf	___fladd@bexp^0,w,c
  6518  000AF4  A4D8               	btfss	status,2,c
  6519  000AF6  EF7F  F005         	goto	u2891
  6520  000AFA  EF81  F005         	goto	u2890
  6521  000AFE                     u2891:
  6522  000AFE  EF83  F005         	goto	l2793
  6523  000B02                     u2890:
  6524  000B02  0E00               	movlw	0
  6525  000B04  6E0D               	movwf	___fladd@signs^0,c
  6526  000B06                     l2793:
  6527  000B06  A00F               	btfss	___fladd@bexp^0,0,c
  6528  000B08  EF88  F005         	goto	u2901
  6529  000B0C  EF8A  F005         	goto	u2900
  6530  000B10                     u2901:
  6531  000B10  EF8D  F005         	goto	l2797
  6532  000B14                     u2900:
  6533  000B14  8E03               	bsf	(___fladd@b+2)^0,7,c
  6534  000B16  EF8E  F005         	goto	l2799
  6535  000B1A                     l2797:
  6536  000B1A  9E03               	bcf	(___fladd@b+2)^0,7,c
  6537  000B1C                     l2799:
  6538  000B1C  90D8               	bcf	status,0,c
  6539  000B1E  300F               	rrcf	___fladd@bexp^0,w,c
  6540  000B20  6E04               	movwf	(___fladd@b+3)^0,c
  6541  000B22  AE0D               	btfss	___fladd@signs^0,7,c
  6542  000B24  EF96  F005         	goto	u2911
  6543  000B28  EF98  F005         	goto	u2910
  6544  000B2C                     u2911:
  6545  000B2C  EF99  F005         	goto	l2805
  6546  000B30                     u2910:
  6547  000B30  8E04               	bsf	(___fladd@b+3)^0,7,c
  6548  000B32                     l2805:
  6549  000B32  C001  F001         	movff	___fladd@b,?___fladd
  6550  000B36  C002  F002         	movff	___fladd@b+1,?___fladd+1
  6551  000B3A  C003  F003         	movff	___fladd@b+2,?___fladd+2
  6552  000B3E  C004  F004         	movff	___fladd@b+3,?___fladd+3
  6553  000B42                     l865:
  6554  000B42  0012               	return		;funcret
  6555  000B44                     __end_of___fladd:
  6556                           	callstack 0
  6557                           
  6558                           	psect	rparam
  6559  0000                     
  6560                           	psect	idloc
  6561                           
  6562                           ;Config register IDLOC0 @ 0x200000
  6563                           ;	unspecified, using default values
  6564  200000                     	org	2097152
  6565  200000  FF                 	db	255
  6566                           
  6567                           ;Config register IDLOC1 @ 0x200001
  6568                           ;	unspecified, using default values
  6569  200001                     	org	2097153
  6570  200001  FF                 	db	255
  6571                           
  6572                           ;Config register IDLOC2 @ 0x200002
  6573                           ;	unspecified, using default values
  6574  200002                     	org	2097154
  6575  200002  FF                 	db	255
  6576                           
  6577                           ;Config register IDLOC3 @ 0x200003
  6578                           ;	unspecified, using default values
  6579  200003                     	org	2097155
  6580  200003  FF                 	db	255
  6581                           
  6582                           ;Config register IDLOC4 @ 0x200004
  6583                           ;	unspecified, using default values
  6584  200004                     	org	2097156
  6585  200004  FF                 	db	255
  6586                           
  6587                           ;Config register IDLOC5 @ 0x200005
  6588                           ;	unspecified, using default values
  6589  200005                     	org	2097157
  6590  200005  FF                 	db	255
  6591                           
  6592                           ;Config register IDLOC6 @ 0x200006
  6593                           ;	unspecified, using default values
  6594  200006                     	org	2097158
  6595  200006  FF                 	db	255
  6596                           
  6597                           ;Config register IDLOC7 @ 0x200007
  6598                           ;	unspecified, using default values
  6599  200007                     	org	2097159
  6600  200007  FF                 	db	255
  6601                           
  6602                           	psect	config
  6603                           
  6604                           ; Padding undefined space
  6605  300000                     	org	3145728
  6606  300000  FF                 	db	255
  6607                           
  6608                           ;Config register CONFIG1H @ 0x300001
  6609                           ;	Oscillator Selection bits
  6610                           ;	OSC = HS, HS oscillator
  6611                           ;	Fail-Safe Clock Monitor Enable bit
  6612                           ;	FCMEN = OFF, Fail-Safe Clock Monitor disabled
  6613                           ;	Internal/External Oscillator Switchover bit
  6614                           ;	IESO = OFF, Oscillator Switchover mode disabled
  6615  300001                     	org	3145729
  6616  300001  02                 	db	2
  6617                           
  6618                           ;Config register CONFIG2L @ 0x300002
  6619                           ;	Power-up Timer Enable bit
  6620                           ;	PWRT = OFF, PWRT disabled
  6621                           ;	Brown-out Reset Enable bits
  6622                           ;	BOREN = OFF, Brown-out Reset disabled in hardware and software
  6623                           ;	Brown Out Reset Voltage bits
  6624                           ;	BORV = 0x2E, user specified literal
  6625  300002                     	org	3145730
  6626  300002  71                 	db	369
  6627                           
  6628                           ;Config register CONFIG2H @ 0x300003
  6629                           ;	Watchdog Timer Enable bit
  6630                           ;	WDT = OFF, WDT disabled (control is placed on the SWDTEN bit)
  6631                           ;	Watchdog Timer Postscale Select bits
  6632                           ;	WDTPS = 1, 1:1
  6633  300003                     	org	3145731
  6634  300003  00                 	db	0
  6635                           
  6636                           ; Padding undefined space
  6637  300004                     	org	3145732
  6638  300004  FF                 	db	255
  6639                           
  6640                           ;Config register CONFIG3H @ 0x300005
  6641                           ;	CCP2 MUX bit
  6642                           ;	CCP2MX = PORTC, CCP2 input/output is multiplexed with RC1
  6643                           ;	PORTB A/D Enable bit
  6644                           ;	PBADEN = ON, PORTB<4:0> pins are configured as analog input channels on Reset
  6645                           ;	Low-Power Timer1 Oscillator Enable bit
  6646                           ;	LPT1OSC = OFF, Timer1 configured for higher power operation
  6647                           ;	MCLR Pin Enable bit
  6648                           ;	MCLRE = ON, MCLR pin enabled; RE3 input pin disabled
  6649  300005                     	org	3145733
  6650  300005  83                 	db	131
  6651                           
  6652                           ;Config register CONFIG4L @ 0x300006
  6653                           ;	Stack Full/Underflow Reset Enable bit
  6654                           ;	STVREN = OFF, Stack full/underflow will not cause Reset
  6655                           ;	Single-Supply ICSP Enable bit
  6656                           ;	LVP = OFF, Single-Supply ICSP disabled
  6657                           ;	Extended Instruction Set Enable bit
  6658                           ;	XINST = OFF, Instruction set extension and Indexed Addressing mode disabled (Legacy mo
      +                          de)
  6659                           ;	Background Debugger Enable bit
  6660                           ;	DEBUG = OFF, Background debugger disabled, RB6 and RB7 configured as general purpose I
      +                          /O pins
  6661  300006                     	org	3145734
  6662  300006  80                 	db	128
  6663                           
  6664                           ; Padding undefined space
  6665  300007                     	org	3145735
  6666  300007  FF                 	db	255
  6667                           
  6668                           ;Config register CONFIG5L @ 0x300008
  6669                           ;	Code Protection bit
  6670                           ;	CP0 = OFF, Block 0 (000800-001FFFh) not code-protected
  6671                           ;	Code Protection bit
  6672                           ;	CP1 = OFF, Block 1 (002000-003FFFh) not code-protected
  6673                           ;	Code Protection bit
  6674                           ;	CP2 = OFF, Block 2 (004000-005FFFh) not code-protected
  6675                           ;	Code Protection bit
  6676                           ;	CP3 = OFF, Block 3 (006000-007FFFh) not code-protected
  6677  300008                     	org	3145736
  6678  300008  0F                 	db	15
  6679                           
  6680                           ;Config register CONFIG5H @ 0x300009
  6681                           ;	Boot Block Code Protection bit
  6682                           ;	CPB = OFF, Boot block (000000-0007FFh) not code-protected
  6683                           ;	Data EEPROM Code Protection bit
  6684                           ;	CPD = OFF, Data EEPROM not code-protected
  6685  300009                     	org	3145737
  6686  300009  C0                 	db	192
  6687                           
  6688                           ;Config register CONFIG6L @ 0x30000A
  6689                           ;	Write Protection bit
  6690                           ;	WRT0 = OFF, Block 0 (000800-001FFFh) not write-protected
  6691                           ;	Write Protection bit
  6692                           ;	WRT1 = OFF, Block 1 (002000-003FFFh) not write-protected
  6693                           ;	Write Protection bit
  6694                           ;	WRT2 = OFF, Block 2 (004000-005FFFh) not write-protected
  6695                           ;	Write Protection bit
  6696                           ;	WRT3 = OFF, Block 3 (006000-007FFFh) not write-protected
  6697  30000A                     	org	3145738
  6698  30000A  0F                 	db	15
  6699                           
  6700                           ;Config register CONFIG6H @ 0x30000B
  6701                           ;	Configuration Register Write Protection bit
  6702                           ;	WRTC = OFF, Configuration registers (300000-3000FFh) not write-protected
  6703                           ;	Boot Block Write Protection bit
  6704                           ;	WRTB = OFF, Boot block (000000-0007FFh) not write-protected
  6705                           ;	Data EEPROM Write Protection bit
  6706                           ;	WRTD = OFF, Data EEPROM not write-protected
  6707  30000B                     	org	3145739
  6708  30000B  E0                 	db	224
  6709                           
  6710                           ;Config register CONFIG7L @ 0x30000C
  6711                           ;	Table Read Protection bit
  6712                           ;	EBTR0 = OFF, Block 0 (000800-001FFFh) not protected from table reads executed in other
      +                           blocks
  6713                           ;	Table Read Protection bit
  6714                           ;	EBTR1 = OFF, Block 1 (002000-003FFFh) not protected from table reads executed in other
      +                           blocks
  6715                           ;	Table Read Protection bit
  6716                           ;	EBTR2 = OFF, Block 2 (004000-005FFFh) not protected from table reads executed in other
      +                           blocks
  6717                           ;	Table Read Protection bit
  6718                           ;	EBTR3 = OFF, Block 3 (006000-007FFFh) not protected from table reads executed in other
      +                           blocks
  6719  30000C                     	org	3145740
  6720  30000C  0F                 	db	15
  6721                           
  6722                           ;Config register CONFIG7H @ 0x30000D
  6723                           ;	Boot Block Table Read Protection bit
  6724                           ;	EBTRB = OFF, Boot block (000000-0007FFh) not protected from table reads executed in ot
      +                          her blocks
  6725  30000D                     	org	3145741
  6726  30000D  40                 	db	64
  6727                           tosu	equ	0xFFF
  6728                           tosh	equ	0xFFE
  6729                           tosl	equ	0xFFD
  6730                           stkptr	equ	0xFFC
  6731                           pclatu	equ	0xFFB
  6732                           pclath	equ	0xFFA
  6733                           pcl	equ	0xFF9
  6734                           tblptru	equ	0xFF8
  6735                           tblptrh	equ	0xFF7
  6736                           tblptrl	equ	0xFF6
  6737                           tablat	equ	0xFF5
  6738                           prodh	equ	0xFF4
  6739                           prodl	equ	0xFF3
  6740                           indf0	equ	0xFEF
  6741                           postinc0	equ	0xFEE
  6742                           postdec0	equ	0xFED
  6743                           preinc0	equ	0xFEC
  6744                           plusw0	equ	0xFEB
  6745                           fsr0h	equ	0xFEA
  6746                           fsr0l	equ	0xFE9
  6747                           wreg	equ	0xFE8
  6748                           indf1	equ	0xFE7
  6749                           postinc1	equ	0xFE6
  6750                           postdec1	equ	0xFE5
  6751                           preinc1	equ	0xFE4
  6752                           plusw1	equ	0xFE3
  6753                           fsr1h	equ	0xFE2
  6754                           fsr1l	equ	0xFE1
  6755                           bsr	equ	0xFE0
  6756                           indf2	equ	0xFDF
  6757                           postinc2	equ	0xFDE
  6758                           postdec2	equ	0xFDD
  6759                           preinc2	equ	0xFDC
  6760                           plusw2	equ	0xFDB
  6761                           fsr2h	equ	0xFDA
  6762                           fsr2l	equ	0xFD9
  6763                           status	equ	0xFD8

Data Sizes:
    Strings     114
    Constant    16
    Data        46
    BSS         14
    Persistent  0
    Stack       0

Auto Spaces:
    Space          Size  Autos    Used
    COMRAM          127     80     116
    BANK0           128      0      24
    BANK1           256      0       0
    BANK2           256      0       0
    BANK3           256      0       0
    BANK4           256      0       0
    BANK5           256      0       0

Pointer List with Targets:

    printf@msg	PTR unsigned char  size(2) Largest target is 60
		 -> STR_3(CODE[54]), STR_2(CODE[60]), STR_1(CODE[54]), 


Critical Paths under _main in COMRAM

    _main->_abastece
    _ssdInit->_pinMode
    _mensagemInicial->_printf
    _ledInicial->_tempo
    _lcdInit->_lcdCommand
    _abastece->___fltol
    _ssdUpdate->_digitalWrite
    _ssdDigit->___lwmod
    _pwmSet1->___lwdiv
    _posAbastece->_printf
    _segundo->_tempo
    _printf->_lcdCommand
    _printf->_lcdData
    _lcdData->_digitalWrite
    _lcdCommand->_digitalWrite
    _Delay2ms->_Delay40us
    ___lwmod->___lwdiv
    ___fltol->___flmul
    ___flmul->___xxtofl

Critical Paths under _main in BANK0

    None.

Critical Paths under _main in BANK1

    None.

Critical Paths under _main in BANK2

    None.

Critical Paths under _main in BANK3

    None.

Critical Paths under _main in BANK4

    None.

Critical Paths under _main in BANK5

    None.

Call Graph Tables:

 ---------------------------------------------------------------------------------
 (Depth) Function   	        Calls       Base Space   Used Autos Params    Refs
 ---------------------------------------------------------------------------------
 (0) _main                                                 8     8      0   72243
                                             74 COMRAM     6     6      0
                            ___fladd
                             ___flge
                           _abastece
                         _kpDebounce
                             _kpInit
                             _kpRead
                            _lcdInit
                    _mensagemInicial
                            _pwmInit
                            _ssdInit
                          _ssdUpdate
 ---------------------------------------------------------------------------------
 (1) _ssdInit                                              0     0      0    1352
                            _pinMode
 ---------------------------------------------------------------------------------
 (1) _pwmInit                                              0     0      0       0
 ---------------------------------------------------------------------------------
 (1) _mensagemInicial                                     25    25      0   11726
                                             16 COMRAM    25    25      0
                         _lcdCommand
                            _lcdData
                         _ledInicial
                             _printf
                              _tempo
 ---------------------------------------------------------------------------------
 (2) _ledInicial                                           0     0      0     138
                              _tempo
 ---------------------------------------------------------------------------------
 (1) _lcdInit                                              0     0      0    4243
                           _Delay2ms
                         _lcdCommand
                            _pinMode
 ---------------------------------------------------------------------------------
 (2) _pinMode                                              6     2      4    1352
                                              0 COMRAM     6     2      4
 ---------------------------------------------------------------------------------
 (1) _kpInit                                               0     0      0       0
 ---------------------------------------------------------------------------------
 (1) _abastece                                            25    19      6   48652
                                             49 COMRAM    25    19      6
                            ___fladd
                             ___flge
                            ___flmul
                            ___fltol
                            ___lwdiv
                            ___lwmod
                             ___wmul
                           ___xxtofl
                         _kpDebounce
                             _kpRead
                         _lcdCommand
                            _lcdData
                        _posAbastece
                            _pwmSet1
                           _ssdDigit
                          _ssdUpdate
 ---------------------------------------------------------------------------------
 (1) _ssdUpdate                                            2     2      0    2572
                                              6 COMRAM     2     2      0
                       _digitalWrite
 ---------------------------------------------------------------------------------
 (2) _ssdDigit                                             2     1      1     784
                                             12 COMRAM     2     1      1
                            ___lwdiv (ARG)
                            ___lwmod (ARG)
 ---------------------------------------------------------------------------------
 (2) _pwmSet1                                              5     5      0    4364
                                              7 COMRAM     5     5      0
                            ___lwdiv
                             ___wmul
 ---------------------------------------------------------------------------------
 (2) _posAbastece                                         21    17      4   20412
                                             16 COMRAM    21    17      4
                            ___lwdiv
                            ___lwmod
                             ___wmul
                         _kpDebounce
                             _kpRead
                         _lcdCommand
                            _lcdData
                             _printf
                            _segundo
 ---------------------------------------------------------------------------------
 (3) _segundo                                              2     2      0     184
                                              4 COMRAM     2     2      0
                              _tempo
 ---------------------------------------------------------------------------------
 (2) _tempo                                                4     4      0     138
                                              0 COMRAM     4     4      0
 ---------------------------------------------------------------------------------
 (2) _printf                                               8     6      2    5896
                                              8 COMRAM     8     6      2
                         _lcdCommand
                            _lcdData
 ---------------------------------------------------------------------------------
 (3) _lcdData                                              2     2      0    2663
                                              6 COMRAM     2     2      0
                          _Delay40us
                       _digitalWrite
 ---------------------------------------------------------------------------------
 (3) _lcdCommand                                           2     2      0    2799
                                              6 COMRAM     2     2      0
                           _Delay2ms
                          _Delay40us
                       _digitalWrite
 ---------------------------------------------------------------------------------
 (2) _digitalWrite                                         6     2      4    2572
                                              0 COMRAM     6     2      4
 ---------------------------------------------------------------------------------
 (4) _Delay2ms                                             1     1      0      92
                                              1 COMRAM     1     1      0
                          _Delay40us
 ---------------------------------------------------------------------------------
 (4) _Delay40us                                            1     1      0      46
                                              0 COMRAM     1     1      0
 ---------------------------------------------------------------------------------
 (1) _kpRead                                               2     0      2       0
                                              0 COMRAM     2     0      2
 ---------------------------------------------------------------------------------
 (1) _kpDebounce                                          10    10      0     210
                                              0 COMRAM    10    10      0
 ---------------------------------------------------------------------------------
 (3) ___wmul                                               6     2      4     767
                                              0 COMRAM     6     2      4
 ---------------------------------------------------------------------------------
 (3) ___lwmod                                              5     1      4    3807
                                              7 COMRAM     5     1      4
                            ___lwdiv (ARG)
                             ___wmul (ARG)
 ---------------------------------------------------------------------------------
 (3) ___lwdiv                                              7     3      4    3506
                                              0 COMRAM     7     3      4
 ---------------------------------------------------------------------------------
 (2) ___xxtofl                                            14    10      4     398
                                              0 COMRAM    14    10      4
 ---------------------------------------------------------------------------------
 (2) ___fltol                                             10     6      4     305
                                             39 COMRAM    10     6      4
                            ___flmul (ARG)
                           ___xxtofl (ARG)
 ---------------------------------------------------------------------------------
 (2) ___flmul                                             25    17      8    1744
                                             14 COMRAM    25    17      8
                           ___xxtofl (ARG)
 ---------------------------------------------------------------------------------
 (2) ___flge                                              12     4      8     790
                                              0 COMRAM    12     4      8
 ---------------------------------------------------------------------------------
 (2) ___fladd                                             16     8      8    2540
                                              0 COMRAM    16     8      8
 ---------------------------------------------------------------------------------
 Estimated maximum stack depth 4
 ---------------------------------------------------------------------------------

 Call Graph Graphs:

 _main (ROOT)
   ___fladd
   ___flge
   _abastece
     ___fladd
     ___flge
     ___flmul
       ___xxtofl (ARG)
     ___fltol
       ___flmul (ARG)
       ___xxtofl (ARG)
     ___lwdiv
     ___lwmod
       ___lwdiv (ARG)
       ___wmul (ARG)
     ___wmul
     ___xxtofl
     _kpDebounce
     _kpRead
     _lcdCommand
       _Delay2ms
         _Delay40us
       _Delay40us
       _digitalWrite
     _lcdData
       _Delay40us
       _digitalWrite
     _posAbastece
       ___lwdiv
       ___lwmod
       ___wmul
       _kpDebounce
       _kpRead
       _lcdCommand
       _lcdData
       _printf
         _lcdCommand
         _lcdData
       _segundo
         _tempo
     _pwmSet1
       ___lwdiv
       ___wmul
     _ssdDigit
       ___lwdiv (ARG)
       ___lwmod (ARG)
     _ssdUpdate
       _digitalWrite
   _kpDebounce
   _kpInit
   _kpRead
   _lcdInit
     _Delay2ms
     _lcdCommand
     _pinMode
   _mensagemInicial
     _lcdCommand
     _lcdData
     _ledInicial
       _tempo
     _printf
     _tempo
   _pwmInit
   _ssdInit
     _pinMode
   _ssdUpdate

 Address spaces:
Name               Size   Autos  Total    Cost      Usage
BIGRAM             5FF      0       0      17        0.0%
EEDATA             100      0       0       0        0.0%
BITBANK5           100      0       0      16        0.0%
BANK5              100      0       0      14        0.0%
BITBANK4           100      0       0      12        0.0%
BANK4              100      0       0      13        0.0%
BITBANK3           100      0       0      10        0.0%
BANK3              100      0       0      11        0.0%
BITBANK2           100      0       0       8        0.0%
BANK2              100      0       0       9        0.0%
BITBANK1           100      0       0       6        0.0%
BANK1              100      0       0       7        0.0%
BITBANK0            80      0       0       4        0.0%
BANK0               80      0      18       5       18.8%
BITCOMRAM           7F      0       0       0        0.0%
COMRAM              7F     50      74       1       91.3%
BITSFR               0      0       0     200        0.0%
SFR                  0      0       0     200        0.0%
STACK                0      0       0       2        0.0%
NULL                 0      0       0       0        0.0%
ABS                  0      0      8C      15        0.0%
DATA                 0      0      8C       3        0.0%
CODE                 0      0       0       0        0.0%


Microchip Technology PIC18 Macro Assembler V2.32 build 20210201212658 
Symbol Table                                                                                   Fri Jul 30 21:52:54 2021

                       l77 1B54                         _v0 0072                         _v1 0071  
                       _v2 0070                         _v3 006F        ___wmul@multiplicand 0003  
                      l111 1906                        l124 2A2E                        l205 2846  
                      l142 1FEE                        l143 2006                        l215 215E  
                      l144 200E                        l160 29F0                        l313 16B8  
                      l250 244E                        l234 297E                        l218 28F2  
                      l147 2A24                        l172 256C                        l228 27EE  
                      l316 26C4                        l165 29C0                        l325 2A1A  
                      l175 2946                        l328 29A4                        l178 25E4  
                      l286 272E                        l279 24EE                        l625 2264  
                      l298 0FC0                        l593 2322                        l826 2658  
                      l819 2650                        l836 2792                        l829 278A  
                      l598 2368                        l942 1086                        l951 12F4  
                      l856 0872                        l952 12E2                        l873 098C  
                      l865 0B42                        l857 0860                        l882 0A5C  
                      l858 0826                        l946 13EA                        l883 0A4A  
                      l949 127C                        l990 1C44                        l959 13AC  
                      l983 1BAC                        l986 1D08                        l997 1CA0  
                      u300 1F0C                        u301 1F08                        u320 1F3C  
                      u321 1F38                        u314 1F22                        u315 1F1E  
                      u350 1FB2                        u334 1F5A                        u351 1FAE  
                      u335 1F54                        u360 1FC4                        u344 1F8A  
                      u361 1FC0                        u345 1F84                        u370 1FDC  
                      u371 1FD8                        u380 1FFE                        u284 1EB8  
                      u381 1FFA                        u285 1EB4                        u294 1ED8  
                      u295 1ED4                        wreg 000FE8               ___flmul@aexp 0020  
             ___flmul@bexp 0021               ___flmul@sign 001B               ___flmul@temp 0026  
             ___flmul@prod 0022               ___fltol@exp1 0031                       l1131 1E9E  
                     l1127 1E96                       l3001 2254                       l1161 1FA0  
                     l1145 1EEC                       l1137 1EA2                       l1129 1E9A  
                     l2201 19AE                       l3011 1BBC                       l1171 1FDC  
                     l1163 1FA2                       l1155 1F10                       l1147 1EF0  
                     l1139 1EE4                       l2211 1A46                       l2203 19CE  
                     l3021 1BFA                       l3013 1BD2                       l3005 1B58  
                     l1173 1FE2                       l1165 1FB2                       l1157 1F3C  
                     l1149 1F0C                       l2221 1AE0                       l2213 1A68  
                     l2205 19F0                       l2301 27DA                       l3101 26FE  
                     l3031 1C82                       l3023 1C2C                       l3007 1B68  
                     l1175 1FE6                       l1167 1FB4                       l1159 1F6C  
                     l2223 1AFC                       l2215 1A84                       l2207 1A0C  
                     l2303 27DC                       l2311 296A                       l3103 2704  
                     l3111 289E                       l3041 1CD8                       l3033 1C90  
                     l3025 1C2E                       l3017 1BE6                       l3009 1B76  
                     l1177 1FFE                       l1169 1FC4                       l2305 2A26  
                     l2225 1B16                       l2217 1A9E                       l2209 1A26  
                     l2241 24F2                       l2313 296C                       l2401 2010  
                     l3121 0B64                       l3105 2706                       l3113 28EE  
                     l3201 1D12                       l3043 1CE8                       l3035 1CAE  
                     l3027 1C3A                       l3019 1BEE                       l1179 200A  
                     l2235 29AA                       l2227 1B36                       l2219 1ABE  
                     l2251 2526                       l2243 24F6                       l2331 23BE  
                     l2315 236A                       l2307 294A                       l2411 206C  
                     l2403 2014                       l3131 0B80                       l3123 0B6A  
                     l3115 0B44                       l3051 256E                       l3107 2716  
                     l3211 1D26                       l3203 1D16                       l3045 1CF6  
                     l3037 1CB0                       l3029 1C76                       l2237 29AE  
                     l2229 29A6                       l2261 2568                       l2253 253A  
                     l2245 24FA                       l2341 23EA                       l2333 23C4  
                     l2325 2380                       l2317 2372                       l2309 2952  
                     l2421 20C0                       l2413 207E                       l2405 2028  
                     l3141 0BF4                       l3133 0B82                       l3117 0B4C  
                     l3061 25A6                       l3053 2596                       l2501 2450  
                     l3109 2722                       l3221 1D64                       l3213 1D2A  
                     l3205 1D1A                       l3047 1CF8                       l3039 1CB4  
                     l2239 29B0                       l2191 1924                       l2255 253E  
                     l2247 250E                       l2271 2916                       l2263 28F6  
                     l2343 23FE                       l2335 23CC                       l2327 23A8  
                     l2351 2412                       l2319 2378                       l2431 2108  
                     l2423 20C8                       l2415 2092                       l2407 203C  
                     l3151 0C90                       l3143 0BFA                       l3135 0B92  
                     l3119 0B5E                       l3071 25BC                       l3063 25AA  
                     l3055 259A                       l2511 2472                       l2503 2454  
                     l3231 1DC6                       l3223 1D72                       l3215 1D2E  
                     l3207 1D1E                       l2185 29DE                       l2193 1936  
                     l2257 2550                       l2249 2512                       l2273 292A  
                     l2265 28FA                       l2353 242E                       l2337 23E0  
                     l2329 23AC                       l2281 279E                       l2601 1690  
                     l2433 211C                       l2425 20DA                       l2417 209A  
                     l2409 2050                       l3161 0D16                       l3153 0CC0  
                     l3145 0C00                       l3137 0B9C                       l3129 0B6E  
                     l3081 25D8                       l3073 25C2                       l3065 25AE  
                     l3057 259E                       l2521 2496                       l2513 2478  
                     l2505 245A                       l3233 1DE2                       l3225 1D8E  
                     l3217 1D3A                       l3209 1D22                       l2611 069E  
                     l2371 2610                       l2363 25E6                       l2187 29E0  
                     l2179 29DA                       l2195 1956                       l2259 2560  
                     l2275 293E                       l2267 28FE                       l2355 2432  
                     l2347 2408                       l2283 27A2                       l2603 16A0  
                     l2427 20EE                       l2419 20AC                       l3171 0DEE  
                     l3163 0D48                       l3155 0CC6                       l3147 0C30  
                     l3139 0BEE                       l2451 1708                       l3083 25DE  
                     l3075 25C6                       l3067 25B4                       l3059 25A2  
                     l2531 24B6                       l2523 2498                       l2515 2482  
                     l2507 2464                       l3091 26E2                       l3235 1DF2  
                     l3227 1D9C                       l3219 1D48                       l2701 0852  
                     l2621 06D2                       l2613 06A0                       l2381 2644  
                     l2373 261E                       l2365 25EE                       l2357 2980  
                     l2197 1978                       l2189 1908                       l2277 2942  
                     l2269 2912                       l2293 27CE                       l2605 16AC  
                     l2429 20F6                       l3165 0D7A                       l3157 0CE2  
                     l3149 0C60                       l3181 0E92                       l2461 17A2  
                     l2453 172A                       l2445 16BA                       l3077 25CC  
                     l3069 25B8                       l2541 24DE                       l2533 24C0  
                     l2525 24A2                       l2517 2486                       l2509 2468  
                     l3085 26C6                       l3229 1DB8                       l2703 0854  
                     l2631 0704                       l2615 06B0                       l2623 06DA  
                     l2607 0684                       l2383 264A                       l2375 2624  
                     l2367 2600                       l2391 2752                       l2359 299C  
                     l2199 1994                       l2287 27B6                       l2279 2796  
                     l2551 269E                       l3255 2138                       l2439 2124  
                     l3191 0EF8                       l3183 0ECE                       l3175 0E24  
                     l3167 0DAC                       l3159 0D12                       l2471 1836  
                     l2463 17BE                       l2455 1746                       l2447 16D6  
                     l3079 25D2                       l2543 24E4                       l2535 24C6  
                     l2527 24A8                       l2519 2490                       l3087 26D8  
                     l3239 1E28                       l2801 0B22                       l2721 08DC  
                     l2713 08A4                       l2705 085E                       l2641 073A  
                     l2633 070A                       l2625 06EA                       l2617 06C0  
                     l2609 0690                       l2377 263A                       l2369 2608  
                     l2393 2760                       l2385 2730                       l2297 27D4  
                     l2289 27BA                       l2561 141A                       l2553 26B6  
                     l2545 265C                       l3193 0F2A                       l3185 0ED4  
                     l3177 0E8A                       l3169 0DDE                       l2481 18C0  
                     l2473 1848                       l2465 17D0                       l2457 1758  
                     l2449 16E8                       l2537 24D0                       l2529 24B2  
                     l3097 26E6                       l3089 26DC                       l2803 0B30  
                     l2723 08E0                       l2715 08B4                       l2707 0880  
                     l2731 0900                       l2651 0776                       l2643 074A  
                     l2635 0718                       l2627 06F0                       l2619 06D0  
                     l2811 0FCE                       l2379 2642                       l2395 2776  
                     l2387 2742                       l2571 1432                       l2555 13EC  
                     l2547 267A                       l2491 2816                       l3195 0F5C  
                     l3187 0EDC                       l3179 0E8E                       l2483 18E4  
                     l2475 186C                       l2467 17F4                       l2459 177C  
                     l2539 24D4                       l3099 26F8                       l2805 0B32  
                     l2733 0926                       l2741 097C                       l2725 08EE  
                     l2717 08C2                       l2709 0890                       l2661 0794  
                     l2653 0784                       l2645 074C                       l2637 071A  
                     l2629 0702                       l2901 129E                       l2821 100E  
                     l2813 0FDC                       l2397 277E                       l2389 274A  
                     l2573 1442                       l2557 1410                       l2549 2696  
                     l2493 281A                       l2485 27F2                       l3197 0F8E  
                     l3189 0EF0                       l2477 1892                       l2469 181A  
                     l2751 09D0                       l2743 09A2                       l2735 095A  
                     l2727 08F0                       l2719 08D0                       l2671 07A8  
                     l2663 0798                       l2655 0788                       l2639 072A  
                     l2647 0754                       l2911 1310                       l2903 12AC  
                     l2831 103E                       l2823 1014                       l2815 0FDE  
                     l2399 2784                       l2591 1594                       l2575 1536  
                     l2567 141E                       l2559 1414                       l2495 282C  
                     l2487 2802                       l2479 18AE                       l3199 1D0A  
                     l2761 09FA                       l2753 09DE                       l2745 09B2  
                     l2737 095C                       l2729 08FA                       l2681 07BC  
                     l2673 07AC                       l2665 079C                       l2657 078C  
                     l2649 0764                       l2921 137A                       l2913 131E  
                     l2905 12DA                       l2841 1076                       l2833 1040  
                     l2825 1024                       l2817 0FEE                       l2809 0FC2  
                     l2593 1666                       l2585 1570                       l2577 1566  
                     l2569 1430                       l2497 2830                       l2489 2806  
                     l2771 0A2C                       l2763 0A0A                       l2755 09E0  
                     l2739 096C                       l2691 080E                       l2683 07C0  
                     l2675 07B0                       l2667 07A0                       l2659 0790  
                     l2931 13D0                       l2923 1394                       l2915 1348  
                     l2851 10C6                       l2843 1096                       l2835 1050  
                     l2827 102A                       l2819 0FFE                       l2595 1676  
                     l2587 1582                       l2579 156C                       l2499 2842  
                     l2781 0A86                       l2773 0A42                       l2757 09EE  
                     l2749 09C6                       l2765 0A0C                       l2693 081E  
                     l2677 07B4                       l2669 07A4                       l2685 07C4  
                     l2941 2294                       l2925 13B0                       l2933 13D6  
                     l2909 1304                       l2917 134C                       l2861 1116  
                     l2853 10D0                       l2845 10A6                       l2837 1060  
                     l2829 1030                       l2597 1688                       l2589 1584  
                     l2791 0B02                       l2783 0AC0                       l2759 09F6  
                     l2767 0A1A                       l2695 0834                       l2687 07C8  
                     l2679 07B8                       l2951 2302                       l2943 22A4  
                     l2935 13DA                       l2927 13C0                       l2919 1366  
                     l2871 1158                       l2863 1122                       l2855 10E6  
                     l2839 1070                       l2599 168C                       l1991 2A1C  
                     l2793 0B06                       l2777 0A6C                       l2785 0AC2  
                     l2769 0A1E                       l2697 0840                       l2689 07F2  
                     l2953 2310                       l2945 22D2                       l2929 13CE  
                     l2881 11BA                       l2873 1168                       l2865 1130  
                     l2857 10F2                       l2849 10BA                       l2961 2160  
                     l1993 2A08                       l2795 0B14                       l2787 0AD2  
                     l2779 0A78                       l2699 0844                       l2955 2360  
                     l2947 22E2                       l2939 2266                       l2891 1262  
                     l2883 11D6                       l2875 1182                       l2867 113C  
                     l2859 110A                       l2971 21B6                       l2963 2176  
                     l1995 2A0C                       l2797 0B1A                       l2789 0AE2  
                     l2957 2366                       l2949 22F0                       l2893 126C  
                     l2885 1200                       l2877 1192                       l2869 114C  
                     l2973 21C6                       l1997 2A10                       l2799 0B1C  
                     l2895 127A                       l2887 1236                       l2879 11AE  
                     l2983 21F0                       l2975 21CA                       l2967 218A  
                     l2897 128C                       l2889 1244                       l2993 2218  
                     l2985 21FA                       l2977 21D8                       l2969 21B4  
                     l2899 129A                       l2995 2224                       l2987 2204  
                     l2997 2234                       l2999 2244                       STR_1 064D  
                     STR_2 0611                       STR_3 064D                       u2010 1AFC  
                     u2011 1AF8                       u2020 1B16                       u2004 1AD0  
                     u2100 27EE                       u2021 1B12                       u2005 1ACC  
                     u2101 27EA                       u2110 297E                       u2111 297A  
                     u3000 1220                       u2200 2742                       u2120 23A8  
                     u2201 273E                       u2121 23A4                       u3010 127A  
                     u2210 2760                       u2050 29C0                       u2034 1B28  
                     u2130 23BE                       u3011 1276                       u2211 275C  
                     u2051 29BC                       u2035 1B24                       u2131 23BA  
                     u3100 13CE                       u3020 129A                       u2220 2776  
                     u2044 1B48                       u2060 2550                       u2140 23E0  
                     u3101 13CA                       u3021 1296                       u3005 1216  
                     u2221 2772                       u2045 1B44                       u2061 254C  
                     u2141 23DC                       u3110 2294                       u3030 12AC  
                     u2070 2560                       u2150 23FE                       u2310 17BE  
                     u2230 16D6                       u3111 2290                       u3031 12A8  
                     u2071 255C                       u2151 23FA                       u2311 17BA  
                     u2231 16D2                       u3120 22D2                       u3040 12DA  
                     u3200 2214                       u2160 244E                       u2080 27B2  
                     u2400 18C0                       u2320 17D0                       u2304 1792  
                     u2240 16E8                       u3121 22CE                       u3041 12D6  
                     u3201 2210                       u2161 244A                       u2081 27AE  
                     u2401 18BC                       u2321 17CC                       u2305 178E  
                     u2241 16E4                       u3130 22F0                       u3050 12F0  
                     u3210 2234                       u2170 2600                       u2090 27CA  
                     u3131 22EC                       u3051 12EC                       u3211 2230  
                     u2171 25FC                       u2091 27C6                       u3140 2310  
                     u3060 1304                       u3220 2244                       u3300 1CAE  
                     u2180 261E                       u2500 1594                       u3141 230C  
                     u3061 1300                       u3221 2240                       u3301 1CAA  
                     u2181 261A                       u2501 1590                       u3150 2360  
                     u3070 131E                       u3310 1CE8                       u3230 1B68  
                     u2190 263A                       u2510 1688                       u2430 2802  
                     u2414 18D6                       u2350 1836                       u2334 17E6  
                     u2270 1746                       u2254 16FA                       u3151 235C  
                     u3071 131A                       u3311 1CE4                       u3231 1B64  
                     u2191 2636                       u2511 1684                       u2431 27FE  
                     u2415 18D2                       u2351 1832                       u2335 17E2  
                     u2271 1742                       u2255 16F6                       u2600 0776  
                     u3080 1366                       u3160 2176                       u3320 1CF6  
                     u3240 1B76                       u2520 16A0                       u2440 2816  
                     u3400 0ECE                       u2424 18FA                       u2360 1848  
                     u2344 180A                       u2280 1758                       u2264 171A  
                     u2601 0772                       u3081 1362                       u3161 2172  
                     u3321 1CF2                       u3241 1B72                       u2521 169C  
                     u2441 2812                       u3401 0ECA                       u2425 18F6  
                     u2361 1844                       u2345 1806                       u2281 1754  
                     u2265 1716                       u2610 0784                       u2530 069E  
                     u3090 1394                       u3170 21AA                       u3250 1BD2  
                     u2450 282C                       u3410 1D48                       u2611 0780  
                     u2531 069A                       u3091 1390                       u3251 1BCE  
                     u2451 2828                       u3331 26D0                       u3411 1D44  
                     u2700 08C2                       u2620 07F2                       u2540 06B0  
                     u3180 21D8                       u3260 1C28                       u1900 19AE  
                     u2460 2842                       u3340 2716                       u3420 1D72  
                     u2701 08BE                       u2621 07EE                       u2541 06AC  
                     u3181 21D4                       u3261 1C24                       u1901 19AA  
                     u2461 283E                       u3341 2712                       u3421 1D6E  
                     u2710 08D0                       u2630 080A                       u2550 06C0  
                     u3190 21EC                       u3270 1C72                       u2390 18AE  
                     u2374 185E                       u2294 176E                       u3430 1D9C  
                     u2711 08CC                       u2631 0804                       u2551 06BC  
                     u3191 21E8                       u3175 21A0                       u3271 1C6E  
                     u2471 13F6                       u3351 0B56                       u2391 18AA  
                     u2375 185A                       u2295 176A                       u3431 1D98  
                     u2800 0A1A                       u2720 08EE                       u2640 080C  
                     u2560 0702                       u3280 1C90                       u1840 29F0  
                     u3360 0B92                       u2384 1882                       u3440 1DC6  
                     u2801 0A16                       u2721 08EA                       u2561 06FE  
                     u3281 1C8C                       u1841 29EC                       u2481 1408  
                     u3361 0B8E                       u2385 187E                       u3441 1DC2  
                     u2810 0A2C                       u2730 0926                       u2650 0834  
                     u2570 0718                       u3290 1CA0                       u1930 1A0C  
                     u1914 19C0                       u1850 1924                       u2490 1442  
                     u3370 0E20                       u3450 1E24                       u2811 0A28  
                     u2731 0922                       u2651 0830                       u2571 0714  
                     u3291 1C9C                       u1931 1A08                       u1915 19BC  
                     u1851 1920                       u2491 143E                       u3371 0E1C  
                     u3451 1E20                       u2900 0B14                       u2820 0A42  
                     u2740 096C                       u2660 0852                       u2580 072A  
                     u1940 1A26                       u1924 19E0                       u1860 1936  
                     u3380 0E8A                       u3460 1E8E                       u2901 0B10  
                     u2821 0A3E                       u2741 0968                       u2661 084E  
                     u2581 0726                       u1941 1A22                       u1925 19DC  
                     u1861 1932                       u3381 0E86                       u3461 1E8A  
                     u2910 0B30                       u2830 0A58                       u2750 09A2  
                     u2670 0872                       u2590 073A                       u2911 0B2C  
                     u2831 0A54                       u2751 099E                       u2671 086E  
                     u2591 0736                       u2840 0A6C                       u2760 09B2  
                     u2680 0880                       u2920 0FDC                       u2841 0A68  
                     u2761 09AE                       u2681 087C                       u2921 0FD8  
                     u2850 0A86                       u2770 09DE                       u2690 0890  
                     u2930 0FEE                       u1970 1A84                       u1954 1A38  
                     u1890 1994                       u1874 1948                       u3394 0EAA  
                     u2851 0A82                       u2771 09DA                       u2691 088C  
                     u2931 0FEA                       u1971 1A80                       u1955 1A34  
                     u1891 1990                       u1875 1944                       u3395 0EA4  
                     u2860 0AC0                       u2780 09EE                       u2940 0FFE  
                     u1980 1A9E                       u1964 1A58                       u1884 1968  
                     u2861 0ABC                       u2781 09EA                       u2941 0FFA  
                     u1981 1A9A                       u1965 1A54                       u1885 1964  
                     u2870 0AD2                       u2790 0A0A                       u2950 103E  
                     u2871 0ACE                       u2791 0A06                       u2951 103A  
                     u2880 0AE2                       u2960 1050                       u2881 0ADE  
                     u2961 104C                       u2890 0B02                       u2970 1060  
                     u1994 1AB0                       u2891 0AFE                       u2971 105C  
                     u1995 1AAC                       u2980 1096                       u2981 1092  
                     u2990 10A6                       u2991 10A2                       _main 1D0A  
                     indf2 000FDF                       fsr1l 000FE1                       fsr2l 000FD9  
                     prodh 000FF4                       prodl 000FF3                       start 0000  
    posAbastece@litroTotal 0013               ___param_bank 000000           posAbastece@F2407 0059  
         posAbastece@F2409 0051              ___fltol@sign1 0030            __end_of___fladd 0B44  
                    ?_main 0001            __end_of___flmul 13EC            __end_of___fltol 2266  
mensagemInicial@msgInicial 0011            __end_of___lwdiv 265A            __end_of___lwmod 2794  
                    _PORTA 000F80                      _PORTB 000F81                      _PORTC 000F82  
                    _PORTD 000F83                      _PORTE 000F84                      _TRISA 000F92  
                    _TRISB 000F93                      _TRISC 000F94                      _TRISD 000F95  
                    _TRISE 000F96           posAbastece@preco 0011            __end_of_lcdData 2948  
          __end_of_lcdInit 25E6                      _litro 0067            __end_of_pinMode 1908  
                    _valor 006D                      _tempo 2794                      main@i 004B  
          __end_of_segundo 2980                      tablat 000FF5            __end_of_ssdInit 28F4  
          __end_of_pwmSet1 26C6            __end_of_pwmInit 2A1C                      plusw1 000FE3  
                    plusw2 000FDB          ??_mensagemInicial 0011                      status 000FD8  
         __end_of_Delay2ms 29C2       __end_of_digitalWrite 1B56            __initialization 2848  
             __end_of_main 1E96         __size_of_Delay40us 0018                     ??_main 004B  
             ?_posAbastece 0011              __activetblptr 000002                     ?_tempo 0001  
         __end_of_abastece 0FC2           __end_of___xxtofl 1D0A          posAbastece@totalL 0015  
        posAbastece@totalP 001D         abastece@litroTotal 0042                     ___flge 2266  
                ??___fladd 0009                     ___wmul 2980                  ??___flmul 0017  
                ??___fltol 002C                  ??___lwdiv 0005                  ??___lwmod 000C  
                   _kpInit 2A1C                     _kpRead 2A26                     clear_0 288E  
                ??_lcdData 0007                     isa$std 000001                  ??_lcdInit 0009  
                   _printf 236A           __end_of_ssdDigit 2848               __pdataCOMRAM 0051  
                ??_pinMode 0005               __mediumconst 0000                     tempo@i 0002  
                   tempo@j 0003                     tempo@k 0004                  ??_segundo 0005  
                   tblptrh 000FF7                     tblptrl 000FF6                     tblptru 000FF8  
                ??_ssdInit 0007                  ??_pwmSet1 0008                  ??_pwmInit 0001  
        __end_of_Delay40us 29F2                 ___flge@ff1 0001                 ___flge@ff2 0005  
             ___xxtofl@arg 000B               ___xxtofl@exp 000A               ___xxtofl@val 0001  
               __accesstop 0080    __end_of__initialization 2894              ___rparam_used 000001  
               ___fltol@f1 0028                pinMode@type 0003             __pcstackCOMRAM 0001  
             __pidataBANK0 29C2              __end_of_tempo 27F0                  ?_Delay2ms 0001  
                  ??_tempo 0001      __size_of_digitalWrite 024E                    ?___flge 0001  
               _lcdCommand 24F0                    ?___wmul 0001                    ?_kpInit 0001  
                  ?_kpRead 0001                 _kpDebounce 1E96                 _ledInicial 2450  
                  ?_printf 0009                  ?_abastece 0032         __size_of_ssdUpdate 0150  
                ?___xxtofl 0001                 ??_Delay2ms 0002            _mensagemInicial 26C6  
     __size_of_posAbastece 02CE               _digitalWrite 1908                    __Hparam 0000  
                  __Lparam 0000                  ?_ssdDigit 000D            kpDebounce@old_D 0006  
          kpDebounce@tempo 0074            __size_of___flge 0104                    ___fladd 0684  
                  ___flmul 0FC2                    ___fltol 2160            __size_of___wmul 0026  
                  ___lwdiv 25E6                    ___lwmod 2730               __psmallconst 0600  
          __size_of_kpInit 000A            __size_of_kpRead 000A                ssdDigit@val 000E  
              ssdDigit@pos 000D                    __pcinit 2848                    _lcdData 28F4  
                  __ramtop 0600                    _lcdInit 256E                    __ptext0 1D0A  
                  __ptext1 289E                    __ptext2 2A08                    __ptext3 26C6  
                  __ptext4 2450                    __ptext5 256E                    __ptext6 16BA  
                  __ptext7 2A1C                    __ptext8 0B44                    __ptext9 2010  
          __size_of_printf 00E6                 ??_abastece 0038                    _display 0073  
               ??___xxtofl 0005                    _pinMode 16BA                    _segundo 2948  
                  _ssdInit 289E                    _pwmSet1 265A                    _pwmInit 2A08  
                Delay2ms@i 0002        kpDebounce@valorNovo 006B       end_of_initialization 2894  
            __Lmediumconst 0000          __end_of_ssdUpdate 2160                 ??_ssdDigit 000E  
                  tempo@ms 0001                    printf@i 000F                    postdec1 000FE5  
              ?_lcdCommand 0001                    postinc0 000FEE    __end_of_mensagemInicial 2730  
              ?_kpDebounce 0001                ?_ledInicial 0001             _valor@ssd$F211 0601  
              ___fladd@grs 0010              ___xxtofl@sign 0009       posAbastece@continuar 0024  
              ___flmul@grs 001C                printf@linha 000D                  _Delay40us 29DA  
           __end_of___flge 236A             __end_of___wmul 29A6              __pidataCOMRAM 29F2  
           __end_of_kpInit 2A26             __end_of_kpRead 2A30     __end_of_valor@ssd$F211 0611  
           __end_of_printf 2450        start_initialization 2848          __size_of_Delay2ms 001C  
      __size_of_lcdCommand 007E        __size_of_kpDebounce 017A                 ?_Delay40us 0001  
      __size_of_ledInicial 00A0                   ??___flge 0009                   ??___wmul 0005  
         mensagemInicial@i 0029                   ??_kpInit 0001                   ??_kpRead 0003  
              __pdataBANK0 0080           ?_mensagemInicial 0001                   ??_printf 000B  
                ___fladd@a 0005                  ___fladd@b 0001                  ___flmul@a 0013  
                ___flmul@b 000F                __pbssCOMRAM 0067          __size_of_abastece 047E  
               pinMode@pin 0001             abastece@indice 0036          __size_of___xxtofl 01B4  
         ___lwdiv@dividend 0001                   ?___fladd 0001                   ?___flmul 000F  
                 ?___fltol 0028          __size_of_ssdDigit 0058                  abastece@i 0044  
                abastece@j 0048                   ?___lwdiv 0001                   ?___lwmod 0008  
                 ?_lcdData 0001                   ?_lcdInit 0001              ??_posAbastece 0015  
            lcdCommand@cmd 0008                __smallconst 0600               posAbastece@i 0025  
                 ?_pinMode 0001                   ?_segundo 0001                   ?_ssdInit 0001  
                 ?_pwmSet1 0001                   ?_pwmInit 0001           ___lwdiv@quotient 0005  
           __size_of_tempo 005C       mensagemInicial@F2392 0080                ??_Delay40us 0001  
           ___wmul@product 0005               ??_lcdCommand 0007                  _ssdUpdate 2010  
               pwmSet1@val 000B               ??_kpDebounce 0001               ??_ledInicial 0005  
        ___wmul@multiplier 0001            lcdCommand@old_D 0007      kpDebounce@valorAntigo 0069  
                 _Delay2ms 29A6                  main@tecla 004F        __end_of_posAbastece 16BA  
                copy_data0 285C                  copy_data1 287C         __end_of_lcdCommand 256E  
             lcdData@old_D 0008               lcdData@valor 0007         __end_of_kpDebounce 2010  
       __end_of_ledInicial 24F0              abastece@F2401 0060                   __Hrparam 0000  
                 __Lrparam 0000                 ?_ssdUpdate 0001           __size_of___fladd 04C0  
         __size_of___flmul 042A           __size_of___fltol 0106           __size_of___lwdiv 0074  
         __size_of___lwmod 0064            pwmSet1@porcento 000A              abastece@preco 0049  
            abastece@valor 0032              abastece@total 003B           __size_of_lcdData 0054  
                 _abastece 0B44           __size_of_lcdInit 0078                   ___xxtofl 1B56  
         __size_of_pinMode 024E            ___lwdiv@divisor 0003            ___lwdiv@counter 0007  
                 __ptext10 27F0                   __ptext11 265A                   __ptext20 29DA  
                 __ptext12 13EC                   __ptext21 2A26                   __ptext13 2948  
                 __ptext30 0684                   __ptext22 1E96                   __ptext14 2794  
                 __ptext23 2980                   __ptext15 236A                   __ptext24 2730  
                 __ptext16 28F4                   __ptext25 25E6                   __ptext17 24F0  
                 __ptext26 1B56                   __ptext18 1908                   __ptext27 2160  
                 __ptext19 29A6                   __ptext28 0FC2                   __ptext29 2266  
         __size_of_segundo 0038           __size_of_ssdInit 0056           __size_of_pwmSet1 006C  
         __size_of_pwmInit 0014              __size_of_main 018C                 Delay40us@i 0001  
                 _ssdDigit 27F0                   isa$xinst 000000                  printf@msg 0009  
              _posAbastece 13EC              ?_digitalWrite 0001          digitalWrite@value 0003  
         ___lwmod@dividend 0008                   segundo@i 0006                   segundo@s 0005  
              ??_ssdUpdate 0007            ___lwmod@divisor 000A                kpDebounce@i 000A  
              kpDebounce@j 0009                kpDebounce@k 0007            ___lwmod@counter 000C  
           ??_digitalWrite 0005   __size_of_mensagemInicial 006A              ___fladd@signs 000D  
          digitalWrite@pin 0001               ___fladd@aexp 000E               ___fladd@bexp 000F  
